---
archs:                 [ arm64, arm64e ]
platform:              (null)
install-name:          "@rpath/MTLToolsDeviceSupport.framework/MTLToolsDeviceSupport"
current-version:       1
compatibility-version: 1
exports:
  - archs:                [ arm64, arm64e ]
    symbols:              [ _DYGetMTLGuestAppClient, _DYHarvesterAddTexturePlane,
                            _DYHarvesterGetData, _DYHarvesterGetDataSize,
                            _DYHarvesterGetMetadata, _DYHarvesterGetMetadataSize,
                            _DYHarvesterGetOffset,
                            _DYHarvesterGetTextureMetadataRequiredSize,
                            _DYHarvesterGetTexturePlane,
                            _DYHarvesterGetTexturePlaneCount,
                            _DYHarvesterInitMetadata,
                            _DYMTLSetObjectRemappingBlock,
                            _DYSetMTLGuestAppClient,
                            __Z23DYInterposeArchiveFlushv,
                            __Z29DYInterposeArchiveFlushStreamP16DYGuestAppClientRN8GPUTools2FB6StreamEPKvm,
                            __Z30DYInterposeArchiveStorePointerP16DYGuestAppClientP18DYTransportMessagePKcPKvm,
                            __ZN13MTLDeviceInfo10InitializeEv,
                            __ZN13MTLDeviceInfo19activeDeviceInfoMapE,
                            __ZN13MTLDeviceInfoC1EP14MTLToolsDevice,
                            __ZN13MTLDeviceInfoC2EP14MTLToolsDevice,
                            __ZN13MTLDeviceInfoD1Ev, __ZN13MTLDeviceInfoD2Ev,
                            __ZN20DYDerivedCounterInfo11ProcessInfoEv,
                            __ZN20DYDerivedCounterInfo17MergeDictionariesEP19NSMutableDictionaryS1_,
                            __ZN20DYDerivedCounterInfo20_ProcessKickCountersEP14NSMutableArraymmP7NSArraymmS1_S3_RNSt3__15arrayIjLm4EEERNS4_6vectorIbNS4_9allocatorIbEEEES3_S3_,
                            __ZN20DYDerivedCounterInfo30ComputeDerivedCountersFromDataEP12NSDictionaryS1_,
                            __ZN20DYDerivedCounterInfo31MergeDerivedCounterDataFromHostEP8NSStringS1_P12NSDictionary,
                            __ZN20DYDerivedCounterInfo32AppendDerivedCounterDataFromHostEP8NSString16DYDevicePlatformP12NSDictionary,
                            __ZN20DYDerivedCounterInfo32WriteToJSONPerDerivedCounterDataEP12NSDictionaryP8NSStringS3_,
                            __ZN20DYDerivedCounterInfo33AppendDerivedCounterInfoToPayloadEP12NSDictionary,
                            __ZN20DYDerivedCounterInfo35ProcessDerivedCounterDataFromDeviceEP12NSDictionaryS1_P7NSArray,
                            __ZN20DYDerivedCounterInfo48_ProcessSplitEncoderDerivedCounterDataFromDeviceEP12NSDictionaryP7NSArrayRNSt3__16vectorIbNS4_9allocatorIbEEEES1_,
                            __ZN20DYDerivedCounterInfo4_dfsERKNSt3__112basic_stringIcNS0_11char_traitsIcEENS0_9allocatorIcEEEERKNS0_13unordered_mapIS6_NS0_6vectorIS6_NS4_IS6_EEEENS0_4hashIS6_EENS0_8equal_toIS6_EENS4_INS0_4pairIS7_SC_EEEEEE,
                            __ZN20DYDerivedCounterInfoC1EP12NSDictionaryP7NSArrayIP8NSStringES4_,
                            __ZN20DYDerivedCounterInfoC2EP12NSDictionaryP7NSArrayIP8NSStringES4_,
                            __ZN8GPUTools3MTL13CaptureHelper10SaveObjectEP15dispatch_data_sb,
                            __ZN8GPUTools3MTL13CaptureHelper10SaveObjectEP17MTLCompileOptionsb,
                            __ZN8GPUTools3MTL13CaptureHelper10SaveObjectEP20MTLSamplerDescriptorRNS_13DynamicBufferE,
                            __ZN8GPUTools3MTL13CaptureHelper10SaveObjectEP20MTLSamplerDescriptorb,
                            __ZN8GPUTools3MTL13CaptureHelper10SaveObjectEP20MTLTextureDescriptorbP18DYTransportMessage,
                            __ZN8GPUTools3MTL13CaptureHelper10SaveObjectEP23MTLRenderPassDescriptorb,
                            __ZN8GPUTools3MTL13CaptureHelper10SaveObjectEP25MTLDepthStencilDescriptorb,
                            __ZN8GPUTools3MTL13CaptureHelper10SaveObjectEP27MTLRenderPipelineDescriptorbP18DYTransportMessage,
                            __ZN8GPUTools3MTL13CaptureHelper10SaveObjectEP28MTLComputePipelineDescriptorb,
                            __ZN8GPUTools3MTL13CaptureHelper10SaveObjectEP31MTLTileRenderPipelineDescriptorb,
                            __ZN8GPUTools3MTL13CaptureHelper10SaveObjectEPU23objcproto12MTLDeviceSPI11objc_objectb,
                            __ZN8GPUTools3MTL13CaptureHelper10SaveObjectEmP7NSArrayIP23MTLPostVertexDumpOutputEPv,
                            __ZN8GPUTools3MTL13CaptureHelper10SaveStringEPKcb,
                            __ZN8GPUTools3MTL13CaptureHelper11_SaveObjectEP19MTLVertexDescriptor,
                            __ZN8GPUTools3MTL13CaptureHelper11_SaveObjectEP20MTLStencilDescriptor,
                            __ZN8GPUTools3MTL13CaptureHelper11_SaveObjectEP33MTLRenderPassAttachmentDescriptorRK13MTLClearColor,
                            __ZN8GPUTools3MTL13CaptureHelper11_SaveObjectEP42MTLRenderPipelineColorAttachmentDescriptor,
                            __ZN8GPUTools3MTL13CaptureHelper11_SaveObjectEP46MTLTileRenderPipelineColorAttachmentDescriptor,
                            __ZN8GPUTools3MTL13CaptureHelper16SaveFileContentsEP8NSStringb,
                            __ZN8GPUTools3MTL13CaptureHelper27_EncodeImageBlockDataReturnEP27MTLRenderPipelineReflection,
                            __ZN8GPUTools3MTL13CaptureHelper29_IsArgumentExplicitImageBlockEP11MTLArgument,
                            __ZN8GPUTools3MTL13CaptureHelper36EncodeChainedRenderPipelineStateInfoEPNSt3__16vectorIPNS_2FB4FbufENS2_9allocatorIS6_EEEEPU33objcproto22MTLRenderPipelineState11objc_objectP27MTLRenderPipelineReflectionP18DYTransportMessage,
                            __ZN8GPUTools3MTL13CaptureHelperC1Ev,
                            __ZN8GPUTools3MTL13CaptureHelperC2Ev,
                            __ZN8GPUTools3MTL13CaptureHelperD1Ev,
                            __ZN8GPUTools3MTL13CaptureHelperD2Ev,
                            __ZN8GPUTools3MTL16IsCommandEncoderENS0_12ReceiverTypeE,
                            __ZN8GPUTools3MTL17IsFuncEnumPresentEj,
                            __ZN8GPUTools3MTL18IsFuncEnumBlitCallEj,
                            __ZN8GPUTools3MTL18IsFuncEnumDrawCallEj,
                            __ZN8GPUTools3MTL18IsFuncEnumSetLabelEj,
                            __ZN8GPUTools3MTL18IsFuncEnumTileCallEj,
                            __ZN8GPUTools3MTL19GetClientMemorySizeEPU19objcproto9MTLDevice11objc_objectPU21objcproto10MTLTexture11objc_objectRK7MTLSizemmPmS8_,
                            __ZN8GPUTools3MTL19GetFuncEnumAsStringEj,
                            __ZN8GPUTools3MTL19IsFuncEnumVideoCallEj,
                            __ZN8GPUTools3MTL20IsFuncEnumDestructorEj,
                            __ZN8GPUTools3MTL20IsFuncEnumSampleCallEj,
                            __ZN8GPUTools3MTL21GetReceiverTypeStringEj,
                            __ZN8GPUTools3MTL21IsFuncEnumComputeCallEj,
                            __ZN8GPUTools3MTL21IsFuncEnumConstructorEj,
                            __ZN8GPUTools3MTL21IsFuncEnumEndEncodingEj,
                            __ZN8GPUTools3MTL22IsFuncEnumResourceCallEj,
                            __ZN8GPUTools3MTL22IsFuncEnumVRSubmitCallEj,
                            __ZN8GPUTools3MTL23GetFuncEnumReceiverTypeEj,
                            __ZN8GPUTools3MTL23IsFuncEnumMPSEncodeCallEj,
                            __ZN8GPUTools3MTL23IsFuncEnumPopDebugGroupEj,
                            __ZN8GPUTools3MTL24IsFuncEnumGPUCommandCallEj,
                            __ZN8GPUTools3MTL24IsFuncEnumPushDebugGroupEj,
                            __ZN8GPUTools3MTL25IsFuncEnumDisplayableCallEj,
                            __ZN8GPUTools3MTL25IsFuncEnumSampledBlitCallEj,
                            __ZN8GPUTools3MTL27GetResourcesBoundByFunctionERKNS_2FD8FunctionERNSt3__16vectorIyNS5_9allocatorIyEEEE,
                            __ZN8GPUTools3MTL28IsFuncEnumSampledBlitCallAGXEj,
                            __ZN8GPUTools3MTL29GetConstructorForReceiverTypeENS0_12ReceiverTypeERNSt3__113unordered_setIjNS2_4hashIjEENS2_8equal_toIjEENS2_9allocatorIjEEEE,
                            __ZN8GPUTools3MTL29GetFuncEnumReceiverTypeStringEj,
                            __ZN8GPUTools3MTL29IsFuncEnumCommitCommandBufferEj,
                            __ZN8GPUTools3MTL29IsFuncEnumCreateCommandBufferEj,
                            __ZN8GPUTools3MTL29IsFuncEnumIndirectExecuteCallEj,
                            __ZN8GPUTools3MTL30InstallMTLFuncEnumsStringTableEv,
                            __ZN8GPUTools3MTL32IsFuncEnumAccelerationEncodeCallEj,
                            __ZN8GPUTools3MTL32IsFuncEnumShaderDylibRelatedCallEj,
                            __ZN8GPUTools3MTL33InstallMTLInternalDataStringTableEv,
                            __ZN8GPUTools3MTL33IsFuncEnumIndirectExecuteDrawCallEj,
                            __ZN8GPUTools3MTL34IsFuncEnumFunctionTableRelatedCallEj,
                            __ZN8GPUTools3MTL36IsFuncEnumIndirectExecuteComputeCallEj,
                            __ZN8GPUTools3MTL5Utils12DYMTLCountereqERKS2_,
                            __ZN8GPUTools3MTL5Utils15DYMTLCounterSeteqERKS2_,
                            __ZN8GPUTools3MTL5Utils21MakeAliasResourceListEPKvRNSt3__16vectorIyNS4_9allocatorIyEEEE,
                            __ZN8GPUTools3MTL5Utils23MakeDYMTLCompileOptionsEPKvRNS1_19DYMTLCompileOptionsE,
                            __ZN8GPUTools3MTL5Utils23MakeDYMTLHeapDescriptorEPKvRNS1_19DYMTLHeapDescriptorE,
                            __ZN8GPUTools3MTL5Utils23MakeDYMTLPostVertexDumpEPKvPyPNSt3__16vectorINS1_25DYMTLPostVertexDumpOutputENS5_9allocatorIS7_EEEE,
                            __ZN8GPUTools3MTL5Utils25MakeDYMTLDeviceDescriptorEPKvRNS1_21DYMTLDeviceDescriptorE,
                            __ZN8GPUTools3MTL5Utils26MakeDYMTLSamplerDescriptorEPKvRNS1_22DYMTLSamplerDescriptorE,
                            __ZN8GPUTools3MTL5Utils26MakeDYMTLTextureDescriptorEPKvRNS1_22DYMTLTextureDescriptorE,
                            __ZN8GPUTools3MTL5Utils29IsIndirectCommandBufferRenderE24DYMTLIndirectCommandType,
                            __ZN8GPUTools3MTL5Utils29MakeDYMTLRenderPassDescriptorEPKvRNS1_25DYMTLRenderPassDescriptorE,
                            __ZN8GPUTools3MTL5Utils30IsIndirectCommandBufferComputeE24DYMTLIndirectCommandType,
                            __ZN8GPUTools3MTL5Utils31MakeDYMTLCommandQueueDescriptorEPKvRNS1_27DYMTLCommandQueueDescriptorE,
                            __ZN8GPUTools3MTL5Utils31MakeDYMTLDepthStencilDescriptorEPKvRNS1_27DYMTLDepthStencilDescriptorE,
                            __ZN8GPUTools3MTL5Utils31MakeDYMTLFunctionConstantValuesEPKvRNSt3__16vectorINS1_26DYMTLFunctionConstantValueENS4_9allocatorIS6_EEEE,
                            __ZN8GPUTools3MTL5Utils32EnumerateValidAttachmentsForTypeERNS1_25DYMTLRenderPassDescriptorEjU13block_pointerFvRNS1_35DYMTLRenderPassAttachmentDescriptorENS2_15eAttachmentTypeEjPbE,
                            __ZN8GPUTools3MTL5Utils33MakeDYMTLRenderPipelineDescriptorEPKvRNS1_29DYMTLRenderPipelineDescriptorE,
                            __ZN8GPUTools3MTL5Utils34MakeDYMTLComputePipelineDescriptorEPKvRNS1_30DYMTLComputePipelineDescriptorE,
                            __ZN8GPUTools3MTL5Utils34MakeDYMTLMutableBufferAncestorMapsEPKvPNSt3__16vectorINS4_13unordered_mapIyNS6_IyyNS4_4hashIyEENS4_8equal_toIyEENS4_9allocatorINS4_4pairIKyyEEEEEES8_SA_NSB_INSC_ISD_SG_EEEEEENSB_ISJ_EEEE,
                            __ZN8GPUTools3MTL5Utils36MakeDYMTLIndirectArgumentBufferInfosEPKvPNSt3__16vectorINS5_INS1_31DYMTLIndirectArgumentBufferInfoENS4_9allocatorIS6_EEEENS7_IS9_EEEE,
                            __ZN8GPUTools3MTL5Utils37MakeDYMTLTileRenderPipelineDescriptorEPKvRNS1_33DYMTLTileRenderPipelineDescriptorE,
                            __ZN8GPUTools3MTL5Utils38MakeDYMTLCounterSampleBufferDescriptorEPKvRNS1_34DYMTLCounterSampleBufferDescriptorE,
                            __ZN8GPUTools3MTL5Utils39MakeDYMTLRasterizationRateMapDescriptorEPKvRNS1_35DYMTLRasterizationRateMapDescriptorE,
                            __ZN8GPUTools3MTL5Utils40MakeDYMTLIndirectCommandBufferDescriptorEPKvRNS1_36DYMTLIndirectCommandBufferDescriptorE,
                            __ZN8GPUTools3MTL5Utils43MakeDYMTLMotionEstimationPipelineDescriptorEPKvRNS1_39DYMTLMotionEstimationPipelineDescriptorE,
                            __ZNK20DYDerivedCounterInfo14RawCounterListEv,
                            __ZNK20DYDerivedCounterInfo18DerivedCounterListEv,
                            __ZNK20DYDerivedCounterInfo19BottleneckFunctionsEv,
                            __ZNK20DYDerivedCounterInfo25RawCountersToNormalizeSetEv,
                            _gDYMTLShaderProfilerProgramTypeKeys,
                            _kDYMTLReservedDeltaResourcesStartId,
                            _kDYMTLReservedOutlineTextureId,
                            _kDYMTLReservedSolidTextureId,
                            _kDYMTLReservedWireFrameTextureId,
                            _kDYStateGroupBlitCommandEncoder,
                            _kDYStateGroupBlitCommandEncoders,
                            _kDYStateGroupCommandBuffer,
                            _kDYStateGroupCommandBuffers,
                            _kDYStateGroupCommandQueue,
                            _kDYStateGroupCommandQueues,
                            _kDYStateGroupComputeCommandEncoder,
                            _kDYStateGroupComputeCommandEncoders,
                            _kDYStateGroupComputePipelineState,
                            _kDYStateGroupComputePipelineStates,
                            _kDYStateGroupDepthStencilState,
                            _kDYStateGroupDepthStencilStates,
                            _kDYStateGroupFunction, _kDYStateGroupFunctions,
                            _kDYStateGroupLibraries, _kDYStateGroupLibrary,
                            _kDYStateGroupMotionEstimationPipelineState,
                            _kDYStateGroupMotionEstimationPipelineStates,
                            _kDYStateGroupParallelRenderCommand,
                            _kDYStateGroupParallelRenderCommandes,
                            _kDYStateGroupRenderCommandEncoder,
                            _kDYStateGroupRenderCommandEncoders,
                            _kDYStateGroupRenderPipelineState,
                            _kDYStateGroupRenderPipelineStates,
                            _kDYStateGroupTextureViews ]
    objc-classes:         [ _DYCAMetalLayerInfo, _DYMTLCaptureScopeInfo,
                            _DYMTLCommandQueueInfo, _DYMTLDerivedCounterSupport,
                            _DYMTLDeviceProfile,
                            _DYMTLPixelHistoryTextureSupport,
                            _DYMTLTextureResize, _DYPMTLCaptureStreamSorter ]
    objc-ivars:           [ _DYCAMetalLayerInfo._deviceAddress,
                            _DYCAMetalLayerInfo._displayName,
                            _DYCAMetalLayerInfo._frame,
                            _DYCAMetalLayerInfo._layerAddress,
                            _DYCAMetalLayerInfo._name,
                            _DYCAMetalLayerInfo._windowTitle,
                            _DYMTLCaptureScopeInfo._deviceAddress,
                            _DYMTLCaptureScopeInfo._displayName,
                            _DYMTLCaptureScopeInfo._label,
                            _DYMTLCaptureScopeInfo._scopeAddress,
                            _DYMTLCommandQueueInfo._canBeCaptured,
                            _DYMTLCommandQueueInfo._deviceAddress,
                            _DYMTLCommandQueueInfo._displayName,
                            _DYMTLCommandQueueInfo._isInternalQueue,
                            _DYMTLCommandQueueInfo._isOpenGLQueue,
                            _DYMTLCommandQueueInfo._label,
                            _DYMTLCommandQueueInfo._queueAddress,
                            _DYMTLCommandQueueInfo._toolsQueueAddress,
                            _DYMTLDerivedCounterSupport._analysisScript,
                            _DYMTLDerivedCounterSupport._configurationVariables,
                            _DYMTLDerivedCounterSupport._counterDictionary,
                            _DYMTLDerivedCounterSupport._derivedCounterScript,
                            _DYMTLDerivedCounterSupport._metalPluginName,
                            _DYMTLDeviceProfile._name,
                            _DYMTLDeviceProfile._supportedFeatureSets,
                            _DYMTLDeviceProfile._supportedGPUFamilies,
                            _DYMTLTextureResize._device,
                            _DYMTLTextureResize._downscaleSampler,
                            _DYMTLTextureResize._fragmentFunctionForPixelFormatCache,
                            _DYMTLTextureResize._quadIndicies,
                            _DYMTLTextureResize._quadPositions,
                            _DYMTLTextureResize._quadTexCoords,
                            _DYMTLTextureResize._thumbnailColorFragment,
                            _DYMTLTextureResize._thumbnailDepthFragment,
                            _DYMTLTextureResize._thumbnailDepthStencilState,
                            _DYMTLTextureResize._thumbnailDictionary,
                            _DYMTLTextureResize._thumbnailPipeline,
                            _DYMTLTextureResize._thumbnailPipelineDescriptor,
                            _DYMTLTextureResize._thumbnailRenderPass,
                            _DYMTLTextureResize._thumbnailStencilFragment,
                            _DYMTLTextureResize._thumbnailTextureDescriptor,
                            _DYMTLTextureResize._upscaleSampler,
                            _DYMTLTextureResize.configureThumbnail,
                            _DYPMTLCaptureStreamSorter._archive,
                            _DYPMTLCaptureStreamSorter._auxiliaryResourceSet,
                            _DYPMTLCaptureStreamSorter._capturingCommandQueueAddress,
                            _DYPMTLCaptureStreamSorter._childToParentMap,
                            _DYPMTLCaptureStreamSorter._cmdBufWaitOrderMap,
                            _DYPMTLCaptureStreamSorter._commandBufferOrder,
                            _DYPMTLCaptureStreamSorter._commandBufferToCommandQueueMap,
                            _DYPMTLCaptureStreamSorter._commandBufferToResourceContainerMap,
                            _DYPMTLCaptureStreamSorter._commandBufferToResourceMap,
                            _DYPMTLCaptureStreamSorter._commandBuffersFromPreviousFrame,
                            _DYPMTLCaptureStreamSorter._commandEncoderSet,
                            _DYPMTLCaptureStreamSorter._constructionIndexMap,
                            _DYPMTLCaptureStreamSorter._drawableTextures,
                            _DYPMTLCaptureStreamSorter._encoderToCommandBufferMap,
                            _DYPMTLCaptureStreamSorter._functionNodes,
                            _DYPMTLCaptureStreamSorter._functionSubmissionOrder,
                            _DYPMTLCaptureStreamSorter._hasParallelRenderCommandEncoder,
                            _DYPMTLCaptureStreamSorter._indexMapUallToSall,
                            _DYPMTLCaptureStreamSorter._indirectCommandBufferToUsedIndirectCommands,
                            _DYPMTLCaptureStreamSorter._internalAppleResourceInfoMap,
                            _DYPMTLCaptureStreamSorter._modifiedFunctionStream,
                            _DYPMTLCaptureStreamSorter._nonSelectedQueueReceivers,
                            _DYPMTLCaptureStreamSorter._numFunctionsForFiles,
                            _DYPMTLCaptureStreamSorter._originalFunctionStream,
                            _DYPMTLCaptureStreamSorter._pipelineStateToUsedFunctions,
                            _DYPMTLCaptureStreamSorter._postOrderRelatives,
                            _DYPMTLCaptureStreamSorter._postProcessedModifiedFunctionStream,
                            _DYPMTLCaptureStreamSorter._precedingRelatives,
                            _DYPMTLCaptureStreamSorter._receiverCreationIndex,
                            _DYPMTLCaptureStreamSorter._referencedObjectToEncoderMap,
                            _DYPMTLCaptureStreamSorter._resourceContainerMap,
                            _DYPMTLCaptureStreamSorter._resourceToCommandBufferMap,
                            _DYPMTLCaptureStreamSorter._selectedCommandQueueAddress,
                            _DYPMTLCaptureStreamSorter._sortedToUnsortedIndexMap,
                            _DYPMTLCaptureStreamSorter._uncommittedCommandBuffers,
                            _DYPMTLCaptureStreamSorter._unsortedToSortedIndexMapDict,
                            _DYPMTLCaptureStreamSorter._usedAppleInternalResources,
                            _DYPMTLCaptureStreamSorter._usedDrawables ]
...
