--- !tapi-tbd-v3
archs:                 [ armv7, armv7s, arm64 ]
platform:              (null)
flags:                 [ flat_namespace ]
install-name:          /System/Library/PrivateFrameworks/RoomScanCore.framework/RoomScanCore
current-version:       7
compatibility-version: 1
objc-constraint:       retain_release
exports:
  - archs:                [ armv7, armv7s, arm64 ]
    symbols:              [ _RS3DObjectBoxTypeAggressive,
                            _RS3DObjectBoxTypeConservative,
                            _RS3DObjectBoxTypeLShaped, _RS3DObjectBoxTypeRaw,
                            _RS3DObjectBoxTypeRawOffline,
                            _RS3DObjectBoxTypeRawOnline,
                            _RS3DObjectBoxTypeUltimate,
                            _RS3DObjectBoxTypeWallAligned,
                            _RS3DObjectGroupTypeChair,
                            _RS3DObjectGroupTypeFloorPlan,
                            _RS3DObjectGroupTypeLShape,
                            _RS3DObjectGroupTypeUShape,
                            _RS3DObjectGroupTypeUnknown,
                            _RS3DObjectODSourceOffline,
                            _RS3DObjectODSourceOnline,
                            _RS3DObjectODSourceUnknown, _RS3DObjectTypeBathtub,
                            _RS3DObjectTypeBed, _RS3DObjectTypeBuildInCabniet,
                            _RS3DObjectTypeCabinet, _RS3DObjectTypeChair,
                            _RS3DObjectTypeCuboid, _RS3DObjectTypeDishwasher,
                            _RS3DObjectTypeDoor, _RS3DObjectTypeFireplace,
                            _RS3DObjectTypeOven, _RS3DObjectTypeRefrigerator,
                            _RS3DObjectTypeScreen, _RS3DObjectTypeShelf,
                            _RS3DObjectTypeSink, _RS3DObjectTypeSofa,
                            _RS3DObjectTypeStairs, _RS3DObjectTypeStool,
                            _RS3DObjectTypeStorage, _RS3DObjectTypeStove,
                            _RS3DObjectTypeTable, _RS3DObjectTypeToilet,
                            _RS3DObjectTypeUnknown, _RS3DObjectTypeWasher,
                            _RS3DObjectTypeWindow, _RSDelaunayTriangulate,
                            _RSErrorDomain, _RSFrameFromDictionary,
                            _RSFrameToDictionary, _RSGraphErrorDomain,
                            _RSKeyframeFromDictionary,
                            _RSKeyframeSequenceFromDictionary,
                            _RSKeyframeSequenceFromDictionaryWithId,
                            _RSKeyframeSequenceToDictionary,
                            _RSKeyframeToDictionary, _RSObjectGroupTypeNoGroup,
                            _RSPointCloudFromDictionary,
                            _RSPointCloudToDictionary,
                            _RSTransformToRenderingCoordinateSpace,
                            _RoomScanCoreSCMVersion, _RoomScanCoreVersionNumber,
                            _RoomScanCoreVersionString,
                            __RSFLoggingGetOSLogForCategory3DOD,
                            __RSFLoggingGetOSLogForCategoryBoundaryRefinement,
                            __RSFLoggingGetOSLogForCategoryDoorWindow,
                            __RSFLoggingGetOSLogForCategoryKeyframeAccumulation,
                            __RSFLoggingGetOSLogForCategoryLcnnDetector,
                            __RSFLoggingGetOSLogForCategoryMarkerProposal,
                            __RSFLoggingGetOSLogForCategoryOfflineFloorPlan,
                            __RSFLoggingGetOSLogForCategoryOnlineConsistency,
                            __RSFLoggingGetOSLogForCategoryOnlineFloorPlan,
                            __RSFLoggingGetOSLogForCategoryPointCloud,
                            __RSFLoggingGetOSLogForCategoryRSCaptureSession,
                            __RSFLoggingGetOSLogForCategoryRSGenerationSession,
                            __RSFLoggingGetOSLogForCategoryRSGraphKit,
                            __RSFLoggingGetOSLogForCategoryRoomScanCore,
                            __RSFLoggingGetOSLogForCategoryStructurePostProcess,
                            __Z10diffRadiusff,
                            __Z10nmsOnBoxesRKNSt3__16vectorI5Box3dNS_9allocatorIS1_EEEERKNS0_IfNS2_IfEEEEPNS0_IiNS2_IiEEEEf,
                            __Z10nmsSameClsPNSt3__16vectorI5Box3dNS_9allocatorIS1_EEEEfPFfRK5box3dS8_E,
                            __Z10nmsSameClsPNSt3__16vectorIU8__strongP10RS3DObjectNS_9allocatorIS3_EEEEfPFfRK5box3dSA_EP8NSString,
                            __Z10sizeScoresRKNSt3__16vectorI5Box3dNS_9allocatorIS1_EEEE,
                            __Z11getCentroidRK5box3d, __Z11resizeBox3dP5Box3dfff,
                            __Z11resizeBoxesPNSt3__16vectorI5Box3dNS_9allocatorIS1_EEEERKNS0_IiNS2_IiEEEEiS9_,
                            __Z11round_clampRKNSt3__16vectorIDv2_fNS_9allocatorIS1_EEEEmPNS0_IDv2_iNS2_IS7_EEEE,
                            __Z11sortIndicesRKNSt3__16vectorIfNS_9allocatorIfEEEEb,
                            __Z12box3dEnlargeRK5box3dfff,
                            __Z12boxes2tensorP7NSArrayIP10RS3DObjectE,
                            __Z12decodeCGRectP7NSCoderP8NSStringR6CGRect,
                            __Z12dragChairOutPNSt3__16vectorI5Box3dNS_9allocatorIS1_EEEERKNS0_IiNS2_IiEEEEiDv3_fSA_SA_S9_S9_RKNS0_INS0_IfNS2_IfEEEENS2_ISC_EEEE,
                            __Z12encodeCGRectP7NSCoderP8NSStringRK6CGRect,
                            __Z12nmsClasswiseRKNSt3__16vectorI5Box3dNS_9allocatorIS1_EEEEf,
                            __Z12removeRowColPNSt3__16vectorINS0_IfNS_9allocatorIfEEEENS1_IS3_EEEERKNS0_IiNS1_IiEEEE,
                            __Z12triangleAreaRKDv3_fS1_S1_,
                            __Z13CropByCrossPtRK5box3dDv3_fPKS2_,
                            __Z13RSCreateError7RSErrorP8NSStringz,
                            __Z13applyRotationRKNSt3__16vectorINS0_IfNS_9allocatorIfEEEENS1_IS3_EEEERK5box3d,
                            __Z13computeCenterPKDv3_fm,
                            __Z13findIntersectDv3_fS_S_S_b,
                            __Z13getMeanLogitsRKNSt3__16vectorI5Box3dNS_9allocatorIS1_EEEERKNS0_IiNS2_IiEEEE,
                            __Z13isBoxNearWallRK5box3dPKDv3_ffiibf,
                            __Z13nmsWReferenceNSt3__16vectorI5Box3dNS_9allocatorIS1_EEEES4_fPFfRK5box3dS7_E,
                            __Z13packBoxesDictP14NSMutableArrayIP10RS3DObjectERKNSt3__16vectorI5Box3dNS4_9allocatorIS6_EEEEP8NSString,
                            __Z13reheightBoxesPNSt3__16vectorI5Box3dNS_9allocatorIS1_EEEERKNS0_IiNS2_IiEEEEiS9_,
                            __Z14PrintBoxCornerRK5box3d,
                            __Z14ShiftBoxCornerP5box3di,
                            __Z14box3dToNSArrayRK5box3d,
                            __Z14convertRGB2HSLDv3_f, __Z14convertRGB2YUVDv3_f,
                            __Z14isBoxRectangleRK5box3d,
                            __Z14nmsAgnosticClsPNSt3__16vectorI5Box3dNS_9allocatorIS1_EEEEfPFfRK5box3dS8_E,
                            __Z15box3dToZUpCoordRK5box3d,
                            __Z15createWorkGroupPKc,
                            __Z15flipAxisToWorldRK5box3d,
                            __Z15resetIgnoredBoxPNSt3__16vectorI5Box3dNS_9allocatorIS1_EEEERKNS0_IiNS2_IiEEEERKNS0_IfNS2_IfEEEE,
                            __Z15rotationYMatrixf, __Z15rotationZMatrixf,
                            __Z15surfaces2tensorP7NSArrayIP11RS3DSurfaceE,
                            __Z15swapCornerGT2QARK5box3d,
                            __Z15tensor2surfacesRN2wt6TensorIfLm3EEE15RS3DSurfaceType,
                            __Z15updateBoxByWallDv3_fS_PKS_fiibP5box3d,
                            __Z16ShouldForceMergeRK5Box3dS1_,
                            __Z16box3dFromNSArrayPK7NSArrayIPS_IP8NSNumberEE,
                            __Z16boxExtendAndClipP5box3dS0_,
                            __Z16compute3dDensityP12RSPointCloudRKNSt3__16vectorImNS1_9allocatorImEEEEiiffRKDv3_dSA_iP15RSSemanticImageRi,
                            __Z16float3DotProductRKDv3_fS1_,
                            __Z16nmsOnBoxesHelperP8NSStringRKNSt3__16vectorI5box3dNS1_9allocatorIS3_EEEERKNS2_IfNS4_IfEEEEPNS2_IiNS4_IiEEEEf,
                            __Z16rotateIgnoredBoxPNSt3__16vectorI5Box3dNS_9allocatorIS1_EEEERKNS0_IiNS2_IiEEEEiRKNS0_INS0_IfNS2_IfEEEENS2_ISB_EEEES9_PS7_PSB_,
                            __Z17apply_scale_shiftRKNSt3__16vectorIDv2_fNS_9allocatorIS1_EEEEffPS4_,
                            __Z17box2boxCornerdistRK5box3dS1_,
                            __Z17box3dToYDownCoordRK5box3d,
                            __Z17getBoxOrientationRK5box3d,
                            __Z17rawBoxesToObjectsRKNSt3__16vectorI5Box3dNS_9allocatorIS1_EEEEb,
                            __Z17removeBoxFromListRKNSt3__16vectorI5Box3dNS_9allocatorIS1_EEEERKNS0_IiNS2_IiEEEE,
                            __Z17removeLargeChairsRKNSt3__16vectorI5Box3dNS_9allocatorIS1_EEEERKNS0_INS0_IfNS2_IfEEEENS2_IS8_EEEE,
                            __Z17setSurfacesHeightP7NSArrayIP11RS3DSurfaceEff,
                            __Z17thetaBetweenBoxesRK5Box3dS1_,
                            __Z18FindTheNearestWallRKNSt3__16vectorI11quad3dType2NS_9allocatorIS1_EEEERK5Box3dRKNS_13unordered_setIiNS_4hashIiEENS_8equal_toIiEENS2_IiEEEEf,
                            __Z18_update_visibilityRNSt3__16vectorI18RSOnlineCurvedWallNS_9allocatorIS1_EEEES5_PKDv3_fm,
                            __Z18extractClassPointsNSt3__13setIhNS_4lessIhEENS_9allocatorIhEEEERK5box3dPK12RSPointCloud,
                            __Z18getFacingDirectionRK5box3dNSt3__16vectorIfNS2_9allocatorIfEEEE,
                            __Z18getIndexOverlapAllPNSt3__16vectorIiNS_9allocatorIiEEEERKNS0_I5Box3dNS1_IS5_EEEE,
                            __Z18getMinSideDistanceRKNSt3__16vectorI5Box3dNS_9allocatorIS1_EEEEmDv3_fS7_,
                            __Z18get_in_cube_pointsRK5box3dPU23objcproto12RSPointCloud11objc_object,
                            __Z18reheightChairBoxesPNSt3__16vectorI5Box3dNS_9allocatorIS1_EEEERKNS0_IiNS2_IiEEEEiS9_,
                            __Z18zeroOutClassScoresRKNSt3__16vectorI5Box3dNS_9allocatorIS1_EEEEP8NSString,
                            __Z19heuristicTableSidesPNSt3__16vectorI5Box3dNS_9allocatorIS1_EEEERKNS0_IiNS2_IiEEEEiRKNS0_INS0_IfNS2_IfEEEENS2_ISB_EEEEPS7_S9_i,
                            __Z19rawBoxesFromObjectsPK7NSArrayIP10RS3DObjectE,
                            __Z19rearrangeChairBoxesPNSt3__16vectorI5Box3dNS_9allocatorIS1_EEEERKNS0_IiNS2_IiEEEEDv3_fS9_RKNS0_INS0_IfNS2_IfEEEENS2_ISC_EEEE,
                            __Z20AdjustBoxCornerOrderP5box3dS0_,
                            __Z20IsBoxSurfaceAttachedRK5box3dS1_,
                            __Z20LShapeBeautificationRKNSt3__16vectorI5Box3dNS_9allocatorIS1_EEEENS_4pairImmEEPK12RSPointCloudPS4_PNS0_IbNS2_IbEEEEPNS_13unordered_setINS_12basic_stringIcNS_11char_traitsIcEENS2_IcEEEENS_4hashISL_EENS_8equal_toISL_EENS2_ISL_EEEE,
                            __Z20RSCameraToDictionaryPU18objcproto8RSCamera11objc_object,
                            __Z20compute2DProbabilityP12RSPointCloudRKNSt3__16vectorImNS1_9allocatorImEEEEiRKDv3_dSA_iP15RSSemanticImageRiSC_SC_SC_,
                            __Z20computeDominantColorRKNSt3__16vectorIDv3_fNS_9allocatorIS1_EEEEi,
                            __Z20estimate_low_ceilingP11RS3DSurfacePU23objcproto12RSPointCloud11objc_object,
                            __Z20heuristicRotateChairP5Box3dRKS_,
                            __Z20isSemanticLabelMatchRKDv4_hRKDv4_tN8roomscan15SemanticLabelv5E,
                            __Z20rearrangeBoxesHelperP5Box3dS0_Dv3_f,
                            __Z20removeSubsumedChairsRKNSt3__16vectorI5Box3dNS_9allocatorIS1_EEEENS0_IiNS2_IiEEEEiDv3_fS9_S9_RKNS0_INS0_IfNS2_IfEEEENS2_ISB_EEEE,
                            __Z20v_dsp_vsmul_selectorPDhfm,
                            __Z20v_dsp_vsmul_selectorPffm,
                            __Z21Compute2DOverlapRatioRK5box3dS1_S1_,
                            __Z21IsObjectWallIntersectRK5box3dDv3_fS2_,
                            __Z21estimate_label_heightPU23objcproto12RSPointCloud11objc_objectN8roomscan15SemanticLabelv5EfRm,
                            __Z21float3NormalizeVectorRKDv3_f,
                            __Z21getBoxSizeInDirectionRK5box3dRKDv3_f,
                            __Z21getChairIndexesOnSideRKNSt3__16vectorI5Box3dNS_9allocatorIS1_EEEERKNS0_IiNS2_IiEEEEiDv3_f,
                            __Z22IsGoodLengthWidthRatioRK5box3d,
                            __Z22RSCameraFromDictionaryP12NSDictionary,
                            __Z22aggressiveRearrangeBoxPNSt3__16vectorI5Box3dNS_9allocatorIS1_EEEERKNS0_IiNS2_IiEEEEiDv3_fSA_SA_S9_S9_RKNS0_INS0_IfNS2_IfEEEENS2_ISC_EEEE,
                            __Z22areBoxesEqualByCornersRK5box3dS1_,
                            __Z22checkChairTableOverlapRK5Box3dRKNSt3__16vectorIS_NS2_9allocatorIS_EEEE,
                            __Z22is_sample_points_equalRK27_RSKeyframeMetaSamplePointsPU21objcproto10RSKeyframe11objc_objectRS_,
                            __Z23ShouldForceExtendCornerRK5Box3dS1_,
                            __Z23project2dto3dPtsOnPlaneRNSt3__16vectorIDv2_fNS_9allocatorIS1_EEEEDv3_fS6_,
                            __Z24MaybeReorderObjectCornerP5Box3d,
                            __Z24SetForceExtendCornerFlagRK5Box3dS1_b,
                            __Z24box3dToCentroidSizeAngleRK5box3d,
                            __Z24centroidSizeAngleToBox3dDv3_fS_f,
                            __Z24centroidSizeAngleToBox3dRKNSt3__16vectorIfNS_9allocatorIfEEEEb,
                            __Z24computeBoundaryInXYPlanePKDv3_fmm,
                            __Z24computeCenterWithIndicesPKDv3_fRKNSt3__16vectorImNS2_9allocatorImEEEE,
                            __Z24convertRS3DSurface2Box3DP11RS3DSurfacef,
                            __Z24copyWallNodeRelationshipP7NSArrayIP11RS3DSurfaceES3_S3_S3_,
                            __Z24getBoxMeanCentroidHeightRK5Box3d,
                            __Z24rotate90_for_semanticMapPDhmmm,
                            __Z25box3d_iou_pairwise_matrixRKNSt3__16vectorI5Box3dNS_9allocatorIS1_EEEES6_,
                            __Z25project_points_to_planeXZRKNSt3__16vectorIDv3_fNS_9allocatorIS1_EEEERK5box3dRNS0_IDv2_fNS2_ISA_EEEE,
                            __Z26TracingMapFromNSDictionaryP12NSDictionary,
                            __Z26project_points_to_planeXYZRKNSt3__16vectorIDv3_fNS_9allocatorIS1_EEEERK5box3dRS4_,
                            __Z27RSFrameFromPythonDictionaryP12NSDictionary,
                            __Z27_computerDominantColor_MeanRKNSt3__16vectorIDv3_fNS_9allocatorIS1_EEEE,
                            __Z27chairBeautificationEvaluateRKNSt3__16vectorI5Box3dNS_9allocatorIS1_EEEERK23ChairBeautificationType,
                            __Z27get2dNormalizedFacingVectorRKDv3_fS1_,
                            __Z28MaybeReorderBackObjectCornerDv2_fP5Box3d,
                            __Z29aggressiveRearrangeBoxHomeAppPNSt3__16vectorI5Box3dNS_9allocatorIS1_EEEERKNS0_IiNS2_IiEEEEiDv3_fSA_SA_SA_S9_S9_RKNS0_INS0_IfNS2_IfEEEENS2_ISC_EEEE,
                            __Z29compressSemanticV5ProbabilityRKNSt3__15arrayIfLm33EEERNS0_IfLm10EEE,
                            __Z30compute_mirror_symmetry_pointsRKNSt3__16vectorIfNS_9allocatorIfEEEERKNS0_IiNS1_IiEEEERK13simd_float4x4SC_llf,
                            __Z31compute_2d_aligned_semantic_mapRKNSt3__16vectorIDv2_fNS_9allocatorIS1_EEEERKNS0_IDv4_hNS2_IS7_EEEERKNS0_IDv4_tNS2_ISC_EEEERKNS0_IDv3_fNS2_ISH_EEEERKNS0_IfNS2_IfEEEEmfffPDh,
                            __Z31convertImageCircleToWorldCircleRKN4wopt8RSCircleERKDv3_dS5_,
                            __Z31convertWorldCircleToImageCircleRKN4wopt8RSCircleERKDv3_dS5_,
                            __Z31get_in_cube_points_probs_colorsRK5box3dPU23objcproto12RSPointCloud11objc_objectRNSt3__16vectorIDv3_fNS4_9allocatorIS6_EEEERNS5_IDv4_hNS7_ISB_EEEERNS5_IDv4_tNS7_ISF_EEEESA_,
                            __Z32computeDiameterToCenterInXYPlanePKDv3_fmRS0_,
                            __Z33convert3DObjectType2SemanticLabelP8NSString,
                            __Z34_computerDominantColor_HSL_BinningRKNSt3__16vectorIDv3_fNS_9allocatorIS1_EEEE,
                            __Z34_computerDominantColor_RGB_BinningRKNSt3__16vectorIDv3_fNS_9allocatorIS1_EEEE,
                            __Z34_computerDominantColor_YUV_BinningRKNSt3__16vectorIDv3_fNS_9allocatorIS1_EEEE,
                            __Z34constructXYRotationMatrixTransposef,
                            __Z35convertVotesToSemanticV5ProbabilityRKDv4_hRKDv4_tRNSt3__15arrayIfLm33EEE,
                            __Z36compute_2d_aligned_semantic_map_fastRKNSt3__16vectorIDv2_fNS_9allocatorIS1_EEEERKNS0_IDv4_hNS2_IS7_EEEERKNS0_IDv4_tNS2_ISC_EEEERKNS0_IDv3_fNS2_ISH_EEEERKNS0_IfNS2_IfEEEEmfffPDh,
                            __Z38CreateFixedPrioritySerialDispatchQueuePKc11qos_class_tihP15OS_os_workgroup,
                            __Z38CreateFixedPrioritySerialDispatchQueuePKcihP15OS_os_workgroup,
                            __Z39convertVotesToSemanticV3PlusProbabilityRKDv4_hRKDv4_tRNSt3__15arrayIfLm26EEE,
                            __Z41get_points_colors_match_label_from_objectP10RS3DObjectPU23objcproto12RSPointCloud11objc_object,
                            __Z42computeSemanticDensityHeightDoorProjectionP12RSPointCloudRKNSt3__16vectorImNS1_9allocatorImEEEEP14RSGeometryMetaiiP15RSSemanticImageRiSC_SB_SB_SB_,
                            __Z42get_points_colors_match_label_from_surfaceP11RS3DSurfacePU23objcproto12RSPointCloud11objc_objectfN8roomscan15SemanticLabelv5E,
                            __Z45convertVotesToCompressedSemanticV5ProbabilityRKDv4_hRKDv4_tRNSt3__15arrayIfLm10EEE,
                            __Z6fusionRNSt3__16vectorI18RSOnlineCurvedWallNS_9allocatorIS1_EEEES5_,
                            __Z8box3dIouRK5box3dS1_b, __Z8rotate90PDhmm,
                            __Z9boxVolumeRK5box3d, __Z9getBoxLWHRK5Box3d,
                            __Z9rotateBoxRK5box3dRKDv3_fRKNSt3__16vectorINS6_IfNS5_9allocatorIfEEEENS7_IS9_EEEE,
                            __ZN10PointsLine13update_heightERKNSt3__16vectorIDv2_dNS0_9allocatorIS2_EEEE,
                            __ZN10PointsLine14update_ceilingERKNSt3__16vectorIbNS0_9allocatorIbEEEE,
                            __ZN10PointsLine15set_norm_vectorERKDv2_d,
                            __ZN10PointsLine16update_occlusionERKNSt3__16vectorIbNS0_9allocatorIbEEEEb,
                            __ZN10PointsLine17get_line_segmentsEv,
                            __ZN10PointsLine20get_world_coordinateEv,
                            __ZN10PointsLine21get_occlusion_segmentERKN2wt6TensorIDhLm2EEERKDv2_dii,
                            __ZN10PointsLine21get_occlusion_segmentERKN2wt6TensorIfLm2EEERKDv2_dii,
                            __ZN10PointsLine22estimate_points_heightERKNSt3__16vectorINS1_IdNS0_9allocatorIdEEEENS2_IS4_EEEERKNS0_8optionalINS1_I12SegmentsInfoNS2_ISA_EEEEEE,
                            __ZN10PointsLine22split_line_into_pointsERKNSt3__18optionalIDv2_dEES5_,
                            __ZN10PointsLine23estimate_points_ceilingERKNSt3__16vectorINS1_IdNS0_9allocatorIdEEEENS2_IS4_EEEEd,
                            __ZN10PointsLine25get_individual_max_heightERKNSt3__16vectorINS1_IdNS0_9allocatorIdEEEENS2_IS4_EEEEd,
                            __ZN10PointsLine25merge_and_extend_segmentsERKN2wt6TensorIDhLm2EEE,
                            __ZN10PointsLine25merge_and_extend_segmentsERKN2wt6TensorIfLm2EEE,
                            __ZN10PointsLine26is_ceiling_visible_in_wallEii,
                            __ZN10PointsLine26set_segments_from_segmentsERKNSt3__16vectorI12SegmentsInfoNS0_9allocatorIS2_EEEE,
                            __ZN10PointsLine28fine_tune_height_of_segmentsERKNSt3__16vectorINS1_IdNS0_9allocatorIdEEEENS2_IS4_EEEE,
                            __ZN10PointsLine30update_segments_with_occlusionERKN2wt6TensorIDhLm3EEEd,
                            __ZN10PointsLine30update_segments_with_occlusionERKN2wt6TensorIfLm3EEEd,
                            __ZN10PointsLine31check_ceiling_state_of_segmentsEv,
                            __ZN10PointsLine8set_lineERKN6rshape8RSLine2DE,
                            __ZN10TracingMap4initEf, __ZN10TracingMap5cleanEv,
                            __ZN10TracingMap6updateEPK12RSPointCloudPK14RSTemporalMeta,
                            __ZN10TracingMapC1Ev, __ZN10TracingMapC2Ev,
                            __ZN10TracingMapD0Ev, __ZN10TracingMapD1Ev,
                            __ZN10TracingMapD2Ev,
                            __ZN10preprocess23filterIndicesByVoxelizeEPKDv3_fRNSt3__16vectorImNS3_9allocatorImEEEE,
                            __ZN10preprocess27filterIndicesByStrideSampleERNSt3__16vectorImNS0_9allocatorImEEEEm,
                            __ZN10preprocess28filterIndicesByRemoveOutlierEPKDv3_fRNSt3__16vectorImNS3_9allocatorImEEEE,
                            __ZN10preprocess29filterIndicesByPythonVoxelizeEPKDv3_fRNSt3__16vectorImNS3_9allocatorImEEEE,
                            __ZN11curved_wall10angle_diffEff,
                            __ZN11curved_wall16circle_detectionERKN2wt6TensorIfLm2EEEf,
                            __ZN11curved_wall17snap_curved_wall2ERKN4wopt8RSCircleERKDv2_fRKN2wt6TensorIfLm2EEERKNSt3__16vectorIN6rshape8RSLine2DENSC_9allocatorISF_EEEESK_RSI_RS4_,
                            __ZN11curved_wall19cut_at_intersectionERKN2wt6TensorIfLm2EEERKN4wopt8RSCircleEffRNSt3__16vectorIN6rshape8RSLine2DENS9_9allocatorISC_EEEE,
                            __ZN11curved_wall20filter_lines_circlesERKNSt3__16vectorIN6rshape8RSLine2DENS0_9allocatorIS3_EEEERKNS1_IN4wopt8RSCircleENS4_ISA_EEEERKNS1_IDv2_fNS4_ISF_EEEERNS1_ImNS4_ImEEEE,
                            __ZN11curved_wall23filter_lines_circles_v2ERKNSt3__16vectorIN6rshape8RSLine2DENS0_9allocatorIS3_EEEERKNS1_IN4wopt8RSCircleENS4_ISA_EEEERKNS1_IDv2_fNS4_ISF_EEEERNS1_ImNS4_ImEEEE,
                            __ZN11curved_wall26curved_wall_detection_helpERKN2wt6TensorIfLm2EEERKNSt3__16vectorIN6rshape8RSLine2DENS5_9allocatorIS8_EEEERKNS6_IfNS9_IfEEEESD_SH_RKNS6_IN4wopt8RSCircleENS9_ISJ_EEEERKNS6_IDv2_fNS9_ISO_EEEE,
                            __ZN11curved_wall28curved_wall_detection_deleteERKNSt3__16vectorIN6rshape8RSLine2DENS0_9allocatorIS3_EEEERKNS1_IfNS4_IfEEEES8_SC_RKNS1_IN4wopt8RSCircleENS4_ISE_EEEERKNS1_IDv2_fNS4_ISJ_EEEEi,
                            __ZN11curved_wall7argsortERKNSt3__16vectorIfNS0_9allocatorIfEEEEm,
                            __ZN12textcoaching11sortSignalsEP7NSArrayIP20RSTextCoachingSignalE,
                            __ZN12textcoaching13LightCoaching10test_modelERKN4wopt4DMatE,
                            __ZN12textcoaching13LightCoaching12update_stateEPU17objcproto7RSFrame11objc_objectRKDv3_fS5_,
                            __ZN12textcoaching13LightCoaching16get_latest_n_kptEv,
                            __ZN12textcoaching13LightCoaching21get_latest_mean_colorEv,
                            __ZN12textcoaching13LightCoaching22_compute_light_featureEPU17objcproto7RSFrame11objc_object,
                            __ZN12textcoaching13LightCoaching5resetEv,
                            __ZN12textcoaching13LightCoaching7processEPU17objcproto7RSFrame11objc_object,
                            __ZN12textcoaching13LightCoachingC1Ev,
                            __ZN12textcoaching13LightCoachingC2Ev,
                            __ZN12textcoaching13LightCoachingD1Ev,
                            __ZN12textcoaching13LightCoachingD2Ev,
                            __ZN12textcoaching13SpeedCoaching10test_modelERKN4wopt4DMatE,
                            __ZN12textcoaching13SpeedCoaching12get_latest_vEv,
                            __ZN12textcoaching13SpeedCoaching12get_latest_wEv,
                            __ZN12textcoaching13SpeedCoaching12update_stateEPU17objcproto7RSFrame11objc_objectRK13simd_float4x4,
                            __ZN12textcoaching13SpeedCoaching22_compute_speed_featureEPU17objcproto7RSFrame11objc_objectRK13simd_float4x4fRK13simd_float3x3,
                            __ZN12textcoaching13SpeedCoaching5resetEv,
                            __ZN12textcoaching13SpeedCoaching7processEPU17objcproto7RSFrame11objc_objectRK13simd_float4x4fRK13simd_float3x3,
                            __ZN12textcoaching13SpeedCoachingC1Ev,
                            __ZN12textcoaching13SpeedCoachingC2Ev,
                            __ZN12textcoaching13SpeedCoachingD1Ev,
                            __ZN12textcoaching13SpeedCoachingD2Ev,
                            __ZN12textcoaching15OnboardCoaching13process_speedEPU17objcproto7RSFrame11objc_objectffb,
                            __ZN12textcoaching15OnboardCoaching5resetEv,
                            __ZN12textcoaching15OnboardCoaching7processEPU17objcproto7RSFrame11objc_objectfffffb,
                            __ZN12textcoaching15OnboardCoachingC1Ev,
                            __ZN12textcoaching15OnboardCoachingC2Ev,
                            __ZN12textcoaching15OnboardCoachingD1Ev,
                            __ZN12textcoaching15OnboardCoachingD2Ev,
                            __ZN12textcoaching16DistanceCoaching10test_modelERKN4wopt4DMatE,
                            __ZN12textcoaching16DistanceCoaching12update_stateEPU17objcproto7RSFrame11objc_object,
                            __ZN12textcoaching16DistanceCoaching16get_latest_meandEv,
                            __ZN12textcoaching16DistanceCoaching25_compute_distance_featureEPU17objcproto7RSFrame11objc_object,
                            __ZN12textcoaching16DistanceCoaching5resetEv,
                            __ZN12textcoaching16DistanceCoaching7processEPU17objcproto7RSFrame11objc_object,
                            __ZN12textcoaching16DistanceCoachingC1Ev,
                            __ZN12textcoaching16DistanceCoachingC2Ev,
                            __ZN12textcoaching16DistanceCoachingD1Ev,
                            __ZN12textcoaching16DistanceCoachingD2Ev,
                            __ZN12textcoaching5resetEv,
                            __ZN13StatisticDict14get_statisticsERKN6rshape8RSLine2DE,
                            __ZN13StatisticDict4initEf,
                            __ZN13StatisticDict5cleanEv,
                            __ZN13StatisticDict6updateERKN6rshape8RSLine2DE,
                            __ZN13StatisticDictC1Ev, __ZN13StatisticDictC2Ev,
                            __ZN13StatisticDictD0Ev, __ZN13StatisticDictD1Ev,
                            __ZN13StatisticDictD2Ev,
                            __ZN13scanui_helper12_update_wallEP11RS3DSurface22RSIndividualStatusTypeRKDv3_fS5_RK12RSEdgeStatesRK16RSEdgeConfidence,
                            __ZN13scanui_helper13scanUI_helperEP7NSArrayIP11RS3DSurfaceEP14NSMutableArrayIS2_ES4_RKDv3_fSA_15RS3DSurfaceType,
                            __ZN13scanui_helper14_find_match_idERKNSt3__16vectorIN6rshape13RS_Match_InfoENS0_9allocatorIS3_EEEEP7NSArrayIP11RS3DSurfaceE15RS3DSurfaceType,
                            __ZN13scanui_helper15reorder_cornersEP11RS3DSurface,
                            __ZN13scanui_helper20get_FP_matching_dictEP7NSArrayIP11RS3DSurfaceES4_RN5rs_ol13ONLINE_CONFIGE,
                            __ZN13scanui_helper28update_edge_state_confidenceEP7NSArrayIP11RS3DSurfaceEP14NSMutableArrayIS2_ERKNSt3__13mapIiiNS8_4lessIiEENS8_9allocatorINS8_4pairIKiiEEEEEERKNS_9UI_CONFIGERKDv3_fSP_,
                            __ZN15marker_proposal10rotate_sppERKN3wlw8lcnn_flp14willow_point2dEf,
                            __ZN15marker_proposal11find_normalERKN3wlw8lcnn_flp13willow_line2dES4_RKNS1_14willow_point2dES7_,
                            __ZN15marker_proposal14MarkerProposal11extend_wallERKN3wlw8lcnn_flp13willow_line2dEf,
                            __ZN15marker_proposal14MarkerProposal11update_poolERNSt3__16vectorINS_11LineWrapperENS1_9allocatorIS3_EEEERNS2_IiNS4_IiEEEERKS6_RKN3wlw8lcnn_flp13willow_line2dERKNS2_IDv3_fNS4_ISI_EEEE,
                            __ZN15marker_proposal14MarkerProposal19get_type_1_proposalERKNSt3__16vectorINS_11LineWrapperENS1_9allocatorIS3_EEEERKNS2_IN3wlw8lcnn_flp13willow_line2dENS4_ISB_EEEESF_RKNS2_IDv3_fNS4_ISG_EEEESK_RS6_RNS2_IiNS4_IiEEEE,
                            __ZN15marker_proposal14MarkerProposal25generate_result_from_poolERNSt3__16vectorINS_11LineWrapperENS1_9allocatorIS3_EEEERNS2_IiNS4_IiEEEE,
                            __ZN15marker_proposal14MarkerProposal25online_structure_completeERKNSt3__16vectorINS_11LineWrapperENS1_9allocatorIS3_EEEERKNS2_IN3wlw8lcnn_flp13willow_line2dENS4_ISB_EEEESF_RKNS2_INS2_IDv3_fNS4_ISG_EEEENS4_ISI_EEEERS6_RNS2_IiNS4_IiEEEE,
                            __ZN15marker_proposal14MarkerProposal5clearEv,
                            __ZN15marker_proposal14MarkerProposal7processERKNSt3__16vectorINS_11LineWrapperENS1_9allocatorIS3_EEEERKNS2_IN3wlw8lcnn_flp13willow_line2dENS4_ISB_EEEESF_RKNS2_IDv3_fNS4_ISG_EEEESK_SK_RS6_RNS2_IiNS4_IiEEEE,
                            __ZN15marker_proposal14MarkerProposalC1Ev,
                            __ZN15marker_proposal14MarkerProposalC2Ev,
                            __ZN15marker_proposal14MarkerProposalD0Ev,
                            __ZN15marker_proposal14MarkerProposalD1Ev,
                            __ZN15marker_proposal14MarkerProposalD2Ev,
                            __ZN15marker_proposal18Structure_complete22is_type1_need_completeERN8lcnn_spp5SceneERNS1_12LineRelationERKNSt3__16vectorINS7_IDv3_fNS6_9allocatorIS8_EEEENS9_ISB_EEEERKNS7_IN3wlw8lcnn_flp13willow_line2dENS9_ISI_EEEERKNS7_I21RS3DWallSurfaceStatusNS9_ISN_EEEE,
                            __ZN15marker_proposal18Structure_complete7processERN8lcnn_spp5SceneERKNSt3__16vectorINS5_IDv3_fNS4_9allocatorIS6_EEEENS7_IS9_EEEERKNS5_IN3wlw8lcnn_flp13willow_line2dENS7_ISG_EEEERKNS5_I21RS3DWallSurfaceStatusNS7_ISL_EEEE,
                            __ZN15marker_proposal18Structure_complete8_processERN8lcnn_spp5SceneERNS1_12LineRelationERKNSt3__16vectorINS7_IDv3_fNS6_9allocatorIS8_EEEENS9_ISB_EEEERKNS7_IN3wlw8lcnn_flp13willow_line2dENS9_ISI_EEEERKNS7_I21RS3DWallSurfaceStatusNS9_ISN_EEEE,
                            __ZN17MetalCannyEdgeRGB21GenerateSourceTextureEP10__CVBuffer,
                            __ZN17MetalCannyEdgeRGBC1ERK20MetalCannyEdgeParams,
                            __ZN17MetalCannyEdgeRGBC2ERK20MetalCannyEdgeParams,
                            __ZN18MetalCannyEdgeBase11DetectEdgesEP10__CVBuffer,
                            __ZN18MetalCannyEdgeBase19DetectEdgesInternalEv,
                            __ZN18MetalCannyEdgeBase23GenerateEmptyMTLTextureERKNSt3__14pairIiiEE14MTLPixelFormat,
                            __ZN18MetalCannyEdgeBase23RescaleSourceMTLTextureEv,
                            __ZN18MetalCannyEdgeBaseC2ERK20MetalCannyEdgeParams,
                            __ZN18rs_drift_detection20RSDriftDetectionCore12setFloorPlanEP11RSFloorPlan,
                            __ZN18rs_drift_detection20RSDriftDetectionCore16get_linear_scoreEff,
                            __ZN18rs_drift_detection20RSDriftDetectionCore18compute_frame_diffERKNS_24DriftFrameInternalWraperES3_,
                            __ZN18rs_drift_detection20RSDriftDetectionCore19get_distance_matrixERKN2wt6TensorIfLm2EEES5_,
                            __ZN18rs_drift_detection20RSDriftDetectionCore21flying_away_detectionEv,
                            __ZN18rs_drift_detection20RSDriftDetectionCore23rawFeaturePoints2TensorEPU26objcproto15RSRawPointCloud11objc_object,
                            __ZN18rs_drift_detection20RSDriftDetectionCore24pose_get_stuck_detectionEv,
                            __ZN18rs_drift_detection20RSDriftDetectionCore25big_pose_change_detectionEv,
                            __ZN18rs_drift_detection20RSDriftDetectionCore33compute_feature_points_similarityERN2wt6TensorIfLm2EEES4_,
                            __ZN18rs_drift_detection20RSDriftDetectionCore5resetEv,
                            __ZN18rs_drift_detection20RSDriftDetectionCore7processEPU17objcproto7RSFrame11objc_objectP7NSArrayIPU21objcproto10RSKeyframe11objc_objectE13simd_float4x4,
                            __ZN18rs_drift_detection20RSDriftDetectionCoreC1Ev,
                            __ZN18rs_drift_detection20RSDriftDetectionCoreC2Ev,
                            __ZN18rs_drift_detection20RSDriftDetectionCoreD0Ev,
                            __ZN18rs_drift_detection20RSDriftDetectionCoreD1Ev,
                            __ZN18rs_drift_detection20RSDriftDetectionCoreD2Ev,
                            __ZN20GroupHeightOptimizer18have_neighbor_wallERKNSt3__16vectorIN6rshape8RSLine3DENS0_9allocatorIS3_EEEES8_,
                            __ZN20GroupHeightOptimizer20add_wall_with_heightERKN6rshape8RSLine3DE,
                            __ZN20GroupHeightOptimizer25check_group_with_neighborEv,
                            __ZN20GroupHeightOptimizer25get_height_value_in_groupEd,
                            __ZN22MetalCannyEdgeSemantic17CopyCVPixelBufferEP10__CVBuffer,
                            __ZN22MetalCannyEdgeSemantic21GenerateSourceTextureEP10__CVBuffer,
                            __ZN22MetalCannyEdgeSemanticC1ERK28MetalCannyEdgeSemanticParams,
                            __ZN22MetalCannyEdgeSemanticC2ERK28MetalCannyEdgeSemanticParams,
                            __ZN26NonUniformHeightEstimation11set_polygonEP11RSFloorPlanRNSt3__16vectorINS3_I12SegmentsInfoNS2_9allocatorIS4_EEEENS5_IS7_EEEE,
                            __ZN26NonUniformHeightEstimation20check_stable_of_wallER10PointsLineRKS0_,
                            __ZN26NonUniformHeightEstimation22global_optimize_heightERNSt3__16vectorINS1_I12SegmentsInfoNS0_9allocatorIS2_EEEENS3_IS5_EEEEd,
                            __ZN26NonUniformHeightEstimation24estimate_one_wall_heightER10PointsLineRN6rshape8RSLine2DERKN2wt6TensorIDhLm2EEERKNS6_IDhLm3EEERKDv2_dPK14RSGeometryMetaRKNSt3__18optionalIS0_EE,
                            __ZN26NonUniformHeightEstimation24estimate_one_wall_heightER10PointsLineRN6rshape8RSLine2DERKN2wt6TensorIfLm2EEERKNS6_IfLm3EEERKDv2_dPK14RSGeometryMetaRKNSt3__18optionalIS0_EE,
                            __ZN26NonUniformHeightEstimation26update_valid_line_segmentsERKNSt3__16vectorINS1_I12SegmentsInfoNS0_9allocatorIS2_EEEENS3_IS5_EEEE,
                            __ZN26NonUniformHeightEstimation29estimate_floor_ceiling_globalERKN2wt6TensorIDhLm2EEE,
                            __ZN26NonUniformHeightEstimation29estimate_floor_ceiling_globalERKN2wt6TensorIfLm2EEE,
                            __ZN26NonUniformHeightEstimation29estimate_height_from_neighborERNSt3__16vectorINS1_I12SegmentsInfoNS0_9allocatorIS2_EEEENS3_IS5_EEEE,
                            __ZN26NonUniformHeightEstimation5resetEv,
                            __ZN26NonUniformHeightEstimation7processEPK11RSFloorPlanRKN2wt6TensorIDhLm2EEERKNS4_IDhLm3EEEPK14RSGeometryMetaRKNSt3__16vectorIDv3_fNSE_9allocatorISG_EEEE,
                            __ZN26NonUniformHeightEstimation7processEPK11RSFloorPlanRKN2wt6TensorIfLm2EEERKNS4_IfLm3EEEPK14RSGeometryMetaRKNSt3__16vectorIDv3_fNSE_9allocatorISG_EEEE,
                            __ZN26NonUniformHeightEstimationC1Ev,
                            __ZN26NonUniformHeightEstimationC2Ev,
                            __ZN26NonUniformHeightEstimationD1Ev,
                            __ZN26NonUniformHeightEstimationD2Ev,
                            __ZN2RS15getLineEquationERKNS_13LineSegment2DERfS3_S3_,
                            __ZN2RS4areaERKNS_7PolygonE,
                            __ZN2RS4clipERKNS_7PolygonES2_,
                            __ZN2RS6lengthERKNS_13LineSegment2DE,
                            __ZN2RS7PolygonC1EPKDv2_fm,
                            __ZN2RS7PolygonC1ERK6CGRect,
                            __ZN2RS7PolygonC2EPKDv2_fm,
                            __ZN2RS7PolygonC2ERK6CGRect,
                            __ZN2RS8distanceERKNS_13LineSegment2DERKDv2_f,
                            __ZN2RS9distance2ERKNS_13LineSegment2DERKDv2_f,
                            __ZN2RS9intersectERKNS_13LineSegment2DES2_RDv2_f,
                            __ZN3rsc20delaunay_triangulateERKNSt3__14spanIKDv2_iLm18446744073709551615EEE,
                            __ZN3wlw16Lcnn_func_helper11jmap_nms_v2ERKN2wt6TensorIfLm3EEES5_f,
                            __ZN3wlw16Lcnn_func_helper12sample_linesERNSt3__16vectorINS_9Lcnn_juncENS1_9allocatorIS3_EEEEfmm,
                            __ZN3wlw16Lcnn_func_helper14feature_gatherERKN2wt6TensorIfLm3EEERKNS2_ImLm1EEES8_S8_S8_RKNS2_IfLm1EEESB_mmRNS2_IfLm2EEE,
                            __ZN3wlw16Lcnn_func_helper17get_line_featuresERN2wt6TensorIfLm3EEES4_RNS2_IfLm2EEEmm,
                            __ZN3wlw16Lcnn_func_helper21filter_line_proposalsERN2wt6TensorIfLm3EEERNS2_IfLm2EEEf,
                            __ZN3wlw22IEspresso_Interface_v110get_outputERKNSt3__112basic_stringIcNS1_11char_traitsIcEENS1_9allocatorIcEEEE,
                            __ZN3wlw22IEspresso_Interface_v112bind_outputsEv,
                            __ZN3wlw22IEspresso_Interface_v113tensor_lengthEPK17espresso_buffer_t,
                            __ZN3wlw22IEspresso_Interface_v119set_input_zero_copyERKNSt3__112basic_stringIcNS1_11char_traitsIcEENS1_9allocatorIcEEEEP10__CVBuffer,
                            __ZN3wlw22IEspresso_Interface_v121set_input_shadow_copyERKNSt3__112basic_stringIcNS1_11char_traitsIcEENS1_9allocatorIcEEEERKNS1_6vectorImNS5_ImEEEEPf,
                            __ZN3wlw22IEspresso_Interface_v15inferERKNSt3__112basic_stringIcNS1_11char_traitsIcEENS1_9allocatorIcEEEE,
                            __ZN3wlw22IEspresso_Interface_v18init_netE17espresso_engine_t23espresso_storage_type_tPKcRKNSt3__16vectorINS5_12basic_stringIcNS5_11char_traitsIcEENS5_9allocatorIcEEEENSA_ISC_EEEERSE_b,
                            __ZN3wlw22IEspresso_Interface_v1C1Ev,
                            __ZN3wlw22IEspresso_Interface_v1C2Ev,
                            __ZN3wlw22IEspresso_Interface_v1D0Ev,
                            __ZN3wlw22IEspresso_Interface_v1D1Ev,
                            __ZN3wlw22IEspresso_Interface_v1D2Ev,
                            __ZN3wlw8Lcnn_FC24initERKNSt3__16vectorINS1_12basic_stringIcNS1_11char_traitsIcEENS1_9allocatorIcEEEENS6_IS8_EEEEmm,
                            __ZN3wlw8Lcnn_FC29fc2_scoreERN2wt6TensorIfLm2EEE,
                            __ZN3wlw8Lcnn_FC2C1Ev, __ZN3wlw8Lcnn_FC2C2Ev,
                            __ZN3wlw8Lcnn_FC2D0Ev, __ZN3wlw8Lcnn_FC2D1Ev,
                            __ZN3wlw8Lcnn_FC2D2Ev,
                            __ZN3wlw8lcnn_flp11create_lineEffffRNS0_13willow_line2dE,
                            __ZN3wlw8lcnn_flp11linalg_normERKNS0_14willow_point2dE,
                            __ZN3wlw8lcnn_flp11linalg_normEff,
                            __ZN3wlw8lcnn_flp11match_linesERKNSt3__16vectorINS0_13willow_line2dENS1_9allocatorIS3_EEEES8_RNS2_IiNS4_IiEEEESB_,
                            __ZN3wlw8lcnn_flp11rotate_wallERKNS0_15standard_line2dES3_f,
                            __ZN3wlw8lcnn_flp12compare_funcERKNS0_9sort_lineES3_f,
                            __ZN3wlw8lcnn_flp12compute_footERKNS0_15standard_line2dERKNS0_16standard_point2dERS4_,
                            __ZN3wlw8lcnn_flp12get_junc_idxERKNSt3__16vectorINS0_14willow_point2dENS1_9allocatorIS3_EEEERKS3_,
                            __ZN3wlw8lcnn_flp12get_vec_funcERKNS0_14willow_point2dES3_,
                            __ZN3wlw8lcnn_flp12get_vec_funcERKNS0_16standard_point2dES3_,
                            __ZN3wlw8lcnn_flp12plot_line_aaERKDv2_iS3_,
                            __ZN3wlw8lcnn_flp13Standard_Room11PostprocessERKNSt3__16vectorINS_8lcnn_resENS2_9allocatorIS4_EEEEP14RSGeometryMetaRKN2wt6TensorIfLm2EEERS7_,
                            __ZN3wlw8lcnn_flp13Standard_Room12initial_roomERKNSt3__16vectorINS_8lcnn_resENS2_9allocatorIS4_EEEE,
                            __ZN3wlw8lcnn_flp13Standard_Room13lbfgs_refreshERKNSt3__16vectorIfNS2_9allocatorIfEEEE,
                            __ZN3wlw8lcnn_flp13Standard_Room14set_first_wallEv,
                            __ZN3wlw8lcnn_flp13Standard_Room17is_manhattan_wallEm,
                            __ZN3wlw8lcnn_flp13Standard_Room17lbfgs_do_optimizeERKNSt3__16vectorIfNS2_9allocatorIfEEEERKNS3_INS3_ImNS4_ImEEEENS4_ISA_EEEESE_RS6_,
                            __ZN3wlw8lcnn_flp13Standard_Room18lbfgs_optimizationEv,
                            __ZN3wlw8lcnn_flp13Standard_Room19is_need_rotate_wallEm,
                            __ZN3wlw8lcnn_flp13Standard_Room19lbfgs_need_optimizeERKNS0_15standard_line2dES4_ff,
                            __ZN3wlw8lcnn_flp13Standard_Room19standard_room_alignEv,
                            __ZN3wlw8lcnn_flp13Standard_Room20clean_internal_paramEv,
                            __ZN3wlw8lcnn_flp13Standard_Room21keep_original_connectERNSt3__16vectorINS0_15standard_line2dENS2_9allocatorIS4_EEEE,
                            __ZN3wlw8lcnn_flp13Standard_Room21merge_all_cross_wallsEv,
                            __ZN3wlw8lcnn_flp13Standard_Room22lbfgs_is_need_optimizeERKNS0_15standard_line2dEmm,
                            __ZN3wlw8lcnn_flp13Standard_Room23refresh_room_parametersERKNSt3__16vectorINS0_15standard_line2dENS2_9allocatorIS4_EEEE,
                            __ZN3wlw8lcnn_flp13Standard_Room26is_satisfy_struct_relationEmmm,
                            __ZN3wlw8lcnn_flp13Standard_Room28calc_intersection2line_paramERKNS0_16standard_point2dEmRNS0_22Intersection2LineParamE,
                            __ZN3wlw8lcnn_flp13Standard_Room28vertex_pairs_is_in_line_maskEmm,
                            __ZN3wlw8lcnn_flp13Standard_Room29intersection2cross_wall_paramERKNS0_16standard_point2dEmfRNS0_22Intersection2LineParamE,
                            __ZN3wlw8lcnn_flp13Standard_Room32lbfgs_is_greater_than_min_lengthEmm,
                            __ZN3wlw8lcnn_flp13Standard_Room37vertex_to_other_walls_nearest_wall_idERKNS0_16standard_point2dEm,
                            __ZN3wlw8lcnn_flp13Standard_Room4initERKNS_14Standard_ParamE,
                            __ZN3wlw8lcnn_flp13compute_angleERKNS0_13willow_line2dES3_,
                            __ZN3wlw8lcnn_flp14get_mean_pointERKNS0_13willow_line2dE,
                            __ZN3wlw8lcnn_flp14inner_or_outerERKNS0_14willow_point2dES3_S3_f,
                            __ZN3wlw8lcnn_flp14map_point2lineERKNS0_14willow_point2dERKNS0_13willow_line2dE,
                            __ZN3wlw8lcnn_flp15point2line_distERKNS0_14willow_point2dERKNS0_13willow_line2dE,
                            __ZN3wlw8lcnn_flp17create_lcnn_juncsEPKfS2_mRNS0_17willow_lcnn_juncsE,
                            __ZN3wlw8lcnn_flp17create_lcnn_linesEPKfS2_mRNS0_17willow_lcnn_linesE,
                            __ZN3wlw8lcnn_flp18angle_line_to_lineERKNS0_13willow_line2dES3_,
                            __ZN3wlw8lcnn_flp18convex_hull_grahamERNSt3__16vectorIDv3_fNS1_9allocatorIS3_EEEE,
                            __ZN3wlw8lcnn_flp18expand_convex_hullERKNSt3__16vectorIDv3_fNS1_9allocatorIS3_EEEERKf,
                            __ZN3wlw8lcnn_flp18point2line_dist_v2ERKNS0_14willow_point2dERKNS0_13willow_line2dE,
                            __ZN3wlw8lcnn_flp19Lcnn_Floorplan_Post11bubble_sortERKNSt3__16vectorIfNS2_9allocatorIfEEEES8_RNS3_ImNS4_ImEEEE,
                            __ZN3wlw8lcnn_flp19Lcnn_Floorplan_Post14get_line_widthERKNSt3__13mapINS2_6vectorIfNS2_9allocatorIfEEEEmNS2_4lessIS7_EENS5_INS2_4pairIKS7_mEEEEEEf,
                            __ZN3wlw8lcnn_flp19Lcnn_Floorplan_Post14get_nms_scoresERKNSt3__16vectorIfNS2_9allocatorIfEEEES8_fS8_fRS6_,
                            __ZN3wlw8lcnn_flp19Lcnn_Floorplan_Post15score_filteringERKNSt3__16vectorIfNS2_9allocatorIfEEEERS6_,
                            __ZN3wlw8lcnn_flp19Lcnn_Floorplan_Post17get_length_scoresERNSt3__16vectorIfNS2_9allocatorIfEEEE,
                            __ZN3wlw8lcnn_flp19Lcnn_Floorplan_Post17get_opening_scoreERKNS0_13willow_line2dEfbRKNSt3__13mapINS5_6vectorIfNS5_9allocatorIfEEEEmNS5_4lessISA_EENS8_INS5_4pairIKSA_mEEEEEEPKf,
                            __ZN3wlw8lcnn_flp19Lcnn_Floorplan_Post17need_filter_scoreEfff,
                            __ZN3wlw8lcnn_flp19Lcnn_Floorplan_Post18get_opening_scoresERKNSt3__13mapINS2_6vectorIfNS2_9allocatorIfEEEEmNS2_4lessIS7_EENS5_INS2_4pairIKS7_mEEEEEEPKfbRS7_,
                            __ZN3wlw8lcnn_flp19Lcnn_Floorplan_Post18refresh_parametersERKNSt3__16vectorImNS2_9allocatorImEEEE,
                            __ZN3wlw8lcnn_flp19Lcnn_Floorplan_Post19structure_filteringERNSt3__16vectorIfNS2_9allocatorIfEEEE,
                            __ZN3wlw8lcnn_flp19Lcnn_Floorplan_Post21filter_line_proposalsEPfmS2_,
                            __ZN3wlw8lcnn_flp19Lcnn_Floorplan_Post21get_connection_anglesERNSt3__16vectorINS3_IfNS2_9allocatorIfEEEENS4_IS6_EEEERKNS3_INS0_13willow_line2dENS4_ISA_EEEEf,
                            __ZN3wlw8lcnn_flp19Lcnn_Floorplan_Post21get_path_density_listERKNS0_13willow_line2dEmPKfRNSt3__16vectorIfNS7_9allocatorIfEEEE,
                            __ZN3wlw8lcnn_flp19Lcnn_Floorplan_Post23calc_postprocess_scoresERNSt3__16vectorIfNS2_9allocatorIfEEEES7_S7_,
                            __ZN3wlw8lcnn_flp19Lcnn_Floorplan_Post24get_template_match_scoreERKNS0_13willow_line2dEmPKf,
                            __ZN3wlw8lcnn_flp19Lcnn_Floorplan_Post25get_template_match_scoresEmPKfRNSt3__16vectorIfNS4_9allocatorIfEEEE,
                            __ZN3wlw8lcnn_flp19Lcnn_Floorplan_Post3runEPfS2_mS2_S2_mS2_RNSt3__16vectorINS_8lcnn_resENS3_9allocatorIS5_EEEE,
                            __ZN3wlw8lcnn_flp19Lcnn_Floorplan_Post49get_template_match_score_with_boundary_projectionERKNS0_13willow_line2dEmRKNSt3__13mapINS5_6vectorIfNS5_9allocatorIfEEEEmNS5_4lessISA_EENS8_INS5_4pairIKSA_mEEEEEEPKf,
                            __ZN3wlw8lcnn_flp19Lcnn_Floorplan_Post50get_template_match_scores_with_boundary_projectionERKNSt3__13mapINS2_6vectorIfNS2_9allocatorIfEEEEmNS2_4lessIS7_EENS5_INS2_4pairIKS7_mEEEEEEPKfRS7_,
                            __ZN3wlw8lcnn_flp19Lcnn_Floorplan_Post57get_template_match_scores_with_boundary_protection_publicERKNSt3__16vectorINS0_13willow_line2dENS2_9allocatorIS4_EEEEPKfRNS3_IfNS5_IfEEEE,
                            __ZN3wlw8lcnn_flp19Lcnn_Floorplan_Post7overlapERKNS0_13willow_line2dES4_,
                            __ZN3wlw8lcnn_flp19Lcnn_Floorplan_Post8line_nmsERKNSt3__16vectorIfNS2_9allocatorIfEEEERS6_S9_,
                            __ZN3wlw8lcnn_flp19adjustCurvedSurfaceEP17RS3DCurvedSurfaceRKNS0_13willow_line2dERS3_,
                            __ZN3wlw8lcnn_flp19cal_a_to_b_distanceERKNS0_13willow_line2dES3_,
                            __ZN3wlw8lcnn_flp19compute_convex_hullERNSt3__16vectorIDv3_fNS1_9allocatorIS3_EEEERKf,
                            __ZN3wlw8lcnn_flp19get_line_junc_idxesERKNSt3__16vectorINS0_14willow_point2dENS1_9allocatorIS3_EEEERKNS0_13willow_line2dERNS2_IiNS4_IiEEEE,
                            __ZN3wlw8lcnn_flp19manhattan_line_lossEfff,
                            __ZN3wlw8lcnn_flp20Room_Standardization15save_projectionERKNSt3__112basic_stringIcNS2_11char_traitsIcEENS2_9allocatorIcEEEEP11RS3DSurfacemP14NSMutableArrayISC_E,
                            __ZN3wlw8lcnn_flp20Room_Standardization15save_projectionERKNSt3__112basic_stringIcNS2_11char_traitsIcEENS2_9allocatorIcEEEERKNS2_6vectorINS_8lcnn_resENS6_ISC_EEEESG_,
                            __ZN3wlw8lcnn_flp20Room_Standardization18calc_project_paramEP11RS3DSurfaceS3_m,
                            __ZN3wlw8lcnn_flp20Room_Standardization18calc_project_paramERKNS0_13willow_line2dERKNSt3__16vectorIS2_NS5_9allocatorIS2_EEEE,
                            __ZN3wlw8lcnn_flp20Room_Standardization18restore_projectionERKNSt3__112basic_stringIcNS2_11char_traitsIcEENS2_9allocatorIcEEEEP11RS3DSurfaceP14NSMutableArrayISC_E,
                            __ZN3wlw8lcnn_flp20Room_Standardization18restore_projectionERKNSt3__112basic_stringIcNS2_11char_traitsIcEENS2_9allocatorIcEEEERKNS2_6vectorINS_8lcnn_resENS6_ISC_EEEERSE_,
                            __ZN3wlw8lcnn_flp20Room_Standardization19filterNoParentNodesEP7NSArrayIP11RS3DSurfaceE,
                            __ZN3wlw8lcnn_flp20Room_Standardization22update_line_along_wallERKNS_8lcnn_resERKNS0_12ProjectParamERS2_,
                            __ZN3wlw8lcnn_flp20Room_Standardization25SetupWallNodeRelationshipERKNSt3__16vectorINS0_12ProjectParamENS2_9allocatorIS4_EEEEP7NSArrayIP11RS3DSurfaceESE_,
                            __ZN3wlw8lcnn_flp20Room_Standardization25update_surface_along_wallEP11RS3DSurfaceRKNS0_12ProjectParamES3_,
                            __ZN3wlw8lcnn_flp20Room_Standardization7processEP11RSFloorPlanP14RSGeometryMetaRKN2wt6TensorIfLm2EEE,
                            __ZN3wlw8lcnn_flp20Unet_fpn_backbone_v117process_one_sceneEP10__CVBufferfRKNSt3__16vectorImNS4_9allocatorImEEEE,
                            __ZN3wlw8lcnn_flp20Unet_fpn_backbone_v14initERKNSt3__112basic_stringIcNS2_11char_traitsIcEENS2_9allocatorIcEEEERKNS2_6vectorIS8_NS6_IS8_EEEEP10__CVBufferRKNS_14BackBone_ParamE,
                            __ZN3wlw8lcnn_flp20Unet_fpn_backbone_v18get_modeERKNSt3__16vectorImNS2_9allocatorImEEEERKNS_14BackBone_ParamE,
                            __ZN3wlw8lcnn_flp20Unet_fpn_backbone_v1C1Ev,
                            __ZN3wlw8lcnn_flp20Unet_fpn_backbone_v1C2Ev,
                            __ZN3wlw8lcnn_flp20Unet_fpn_backbone_v1D0Ev,
                            __ZN3wlw8lcnn_flp20Unet_fpn_backbone_v1D1Ev,
                            __ZN3wlw8lcnn_flp20Unet_fpn_backbone_v1D2Ev,
                            __ZN3wlw8lcnn_flp20Unet_fpn_backbone_v217process_one_sceneEP10__CVBufferfRKNSt3__16vectorImNS4_9allocatorImEEEE,
                            __ZN3wlw8lcnn_flp20Unet_fpn_backbone_v222convert_ref_to_wtensorEP10__CVBufferRKNS_16StaticDescripterERN2wt6TensorIfLm3EEE,
                            __ZN3wlw8lcnn_flp20Unet_fpn_backbone_v24initERKNSt3__112basic_stringIcNS2_11char_traitsIcEENS2_9allocatorIcEEEERKNS2_6vectorIS8_NS6_IS8_EEEEP10__CVBufferRKNS_14BackBone_ParamE,
                            __ZN3wlw8lcnn_flp20Unet_fpn_backbone_v2C1Ev,
                            __ZN3wlw8lcnn_flp20Unet_fpn_backbone_v2C2Ev,
                            __ZN3wlw8lcnn_flp20Unet_fpn_backbone_v2D0Ev,
                            __ZN3wlw8lcnn_flp20Unet_fpn_backbone_v2D1Ev,
                            __ZN3wlw8lcnn_flp20Unet_fpn_backbone_v2D2Ev,
                            __ZN3wlw8lcnn_flp20compute_line_dist_v1ERKNS0_13willow_line2dES3_,
                            __ZN3wlw8lcnn_flp20create_standard_lineEffffRNS0_15standard_line2dE,
                            __ZN3wlw8lcnn_flp20get_corner_dist_listERKNS0_13willow_line2dES3_,
                            __ZN3wlw8lcnn_flp20map_point2line_innerERKNS0_14willow_point2dERKNS0_13willow_line2dEf,
                            __ZN3wlw8lcnn_flp20obtain_vector_normalERKNS0_14willow_point2dES3_,
                            __ZN3wlw8lcnn_flp21compute_line_functionERKNS0_15standard_line2dERNSt3__16vectorIfNS4_9allocatorIfEEEE,
                            __ZN3wlw8lcnn_flp21create_standard_pointEff,
                            __ZN3wlw8lcnn_flp22compute_projection_iouERKNS0_13willow_line2dES3_,
                            __ZN3wlw8lcnn_flp23Lcnn_floorplan_detector14infer_backboneEP10__CVBufferfRKNSt3__16vectorImNS4_9allocatorImEEEE,
                            __ZN3wlw8lcnn_flp23Lcnn_floorplan_detector17lcnn_post_processEfRN2wt6TensorIfLm3EEES5_RNS3_IfLm2EEES7_RNS3_IfLm1EEERNSt3__16vectorINS_8lcnn_resENSA_9allocatorISC_EEEESG_,
                            __ZN3wlw8lcnn_flp23Lcnn_floorplan_detector17process_one_sceneEP10__CVBufferfRKNSt3__16vectorImNS4_9allocatorImEEEERNS5_INS_8lcnn_resENS6_ISB_EEEESE_,
                            __ZN3wlw8lcnn_flp23Lcnn_floorplan_detector4initERKNSt3__112basic_stringIcNS2_11char_traitsIcEENS2_9allocatorIcEEEERKNS2_6vectorIS8_NS6_IS8_EEEEP10__CVBufferRKNS_14BackBone_ParamERKNS_17PostProcess_ParamESN_,
                            __ZN3wlw8lcnn_flp23Lcnn_floorplan_detectorC1Ev,
                            __ZN3wlw8lcnn_flp23Lcnn_floorplan_detectorC2Ev,
                            __ZN3wlw8lcnn_flp23Lcnn_floorplan_detectorD0Ev,
                            __ZN3wlw8lcnn_flp23Lcnn_floorplan_detectorD1Ev,
                            __ZN3wlw8lcnn_flp23Lcnn_floorplan_detectorD2Ev,
                            __ZN3wlw8lcnn_flp23compute_projection_iousERKNS0_13willow_line2dES3_RNSt3__16vectorIfNS4_9allocatorIfEEEE,
                            __ZN3wlw8lcnn_flp23distance_point_to_pointERKNS0_14willow_point2dES3_,
                            __ZN3wlw8lcnn_flp23obtain_vector_directionERKNS0_14willow_point2dES3_,
                            __ZN3wlw8lcnn_flp23rotate_wall_along_angleERKNS0_15standard_line2dES3_f,
                            __ZN3wlw8lcnn_flp23standard_inner_or_outerERKNS0_16standard_point2dES3_S3_,
                            __ZN3wlw8lcnn_flp23standard_map_point2lineERKNS0_16standard_point2dERKNS0_15standard_line2dE,
                            __ZN3wlw8lcnn_flp24standard_point2line_distERKNS0_16standard_point2dERKNS0_15standard_line2dE,
                            __ZN3wlw8lcnn_flp25intersection_of_two_linesERKNS0_15standard_line2dES3_RNS0_16standard_point2dE,
                            __ZN3wlw8lcnn_flp25line_segment_intersect_v2ERKNS0_13willow_line2dES3_,
                            __ZN3wlw8lcnn_flp27get_single_wall_angle_errorERKNS0_15standard_line2dES3_,
                            __ZN3wlw8lcnn_flp27standard_angle_line_to_lineERKNS0_15standard_line2dES3_,
                            __ZN3wlw8lcnn_flp28obtain_min_manhattan_loss_idERKNSt3__16vectorINS0_15standard_line2dENS1_9allocatorIS3_EEEERKNS2_IfNS4_IfEEEEf,
                            __ZN3wlw8lcnn_flp29compute_projection_percentageERKNS0_13willow_line2dES3_,
                            __ZN3wlw8lcnn_flp29inner_or_outer_point_and_lineERKNS0_14willow_point2dERKNS0_13willow_line2dEf,
                            __ZN3wlw8lcnn_flp31compute_projection_intersectionERKNS0_13willow_line2dES3_RNSt3__16vectorINS0_14willow_point2dENS4_9allocatorIS6_EEEE,
                            __ZN3wlw8lcnn_flp31standard_angle_line_to_line_180ERKNS0_15standard_line2dES3_,
                            __ZN3wlw8lcnn_flp31standard_distance_point_to_lineERKNS0_15standard_line2dERKNS0_16standard_point2dEi,
                            __ZN3wlw8lcnn_flp32standard_distance_point_to_pointERKNS0_16standard_point2dES3_,
                            __ZN3wlw8lcnn_flp38standard_inner_or_outer_point_and_lineERKNS0_16standard_point2dERKNS0_15standard_line2dE,
                            __ZN4VECV11HoughLinesPERKN2wt6TensorIhLm2EEERNSt3__16vectorIDv4_iNS5_9allocatorIS7_EEEEffiff,
                            __ZN4VECV16cvtColor_Rgb2LabEPKDv3_fmRNSt3__16vectorIDv3_hNS3_9allocatorIS5_EEEE,
                            __ZN4VECV16cvtColor_Rgb2LabERKDv3_f,
                            __ZN4VECV16cvtColor_Rgb2XyzERKDv3_f,
                            __ZN4VECV16cvtColor_Xyz2LabERKDv3_f,
                            __ZN4VECV17cvtColor_Bgra2LabEPKDv4_hmRNSt3__16vectorIDv3_hNS3_9allocatorIS5_EEEE,
                            __ZN4VECV18ConnectedComponent8labelValEii,
                            __ZN4VECV18ConnectedComponent9bitmapValEii,
                            __ZN4VECV18ConnectedComponentC1EPhmmmNS_12ConnectivityE,
                            __ZN4VECV18ConnectedComponentC2EPhmmmNS_12ConnectivityE,
                            __ZN4VECV18ConnectedComponentD1Ev,
                            __ZN4VECV18ConnectedComponentD2Ev,
                            __ZN4VECV4PPHT4voteERKDv2_iRiS4_,
                            __ZN4VECV4PPHT6unvoteERKDv2_i,
                            __ZN4VECV4PPHT8getLinesERNSt3__16vectorIDv4_iNS1_9allocatorIS3_EEEE,
                            __ZN4VECV4PPHT9traceLineERKDv2_iiRNSt3__15arrayIS1_Lm2EEE,
                            __ZN4VECV4PPHTC1ERKN2wt6TensorIhLm2EEEffiff,
                            __ZN4VECV4PPHTC2ERKN2wt6TensorIhLm2EEEffiff,
                            __ZN4wopt13SobelOperator3runERKN2wt6TensorIfLm2EEEiii,
                            __ZN4wopt14GaussianFilter3runERKN2wt6TensorIfLm2EEEi,
                            __ZN4wopt17CannyEdgeDetector3runERKN2wt6TensorIhLm2EEEiiibi,
                            __ZN4wopt17CannyEdgeDetector3runERKN2wt6TensorIhLm3EEEiii,
                            __ZN4wopt17CannyEdgeDetector3runERKN2wt6TensorIiLm2EEES5_ii,
                            __ZN4wopt17CannyEdgeDetector3runERKNSt3__16vectorIN2wt6TensorIiLm2EEENS1_9allocatorIS5_EEEESA_ii,
                            __ZN4wopt17nonMaximumSupressERKN2wt6TensorIiLm2EEES4_S4_iiRS2_RNSt3__15dequeIDv2_iNS6_9allocatorIS8_EEEE,
                            __ZN4wopt19HoughCircleDetector3runERKN2wt6TensorIfLm2EEEfiiiiRNSt3__16vectorINS_8RSCircleENS6_9allocatorIS8_EEEE,
                            __ZN4wopt24trackThresholdHysterisisERN2wt6TensorIiLm2EEERNSt3__15dequeIDv2_iNS4_9allocatorIS6_EEEE,
                            __ZN5rs_ol11RSStructure8add_nodeENS_14STRUCTURE_TYPEERKNS_17RS3DSurfaceOnlineE,
                            __ZN5rs_ol11RSStructureC2Ev,
                            __ZN5rs_ol11RSStructureD0Ev,
                            __ZN5rs_ol11RSStructureD1Ev,
                            __ZN5rs_ol11RSStructureD2Ev,
                            __ZN5rs_ol12get_relationERKN6rshape8RSLine2DES3_RKNS_13ONLINE_CONFIGE,
                            __ZN5rs_ol14RSOnlineFusion12_all_matchedERKNSt3__112basic_stringIcNS1_11char_traitsIcEENS1_9allocatorIcEEEERKNS1_13unordered_mapIS7_NSA_IS7_NS_8RELATIONENS1_4hashIS7_EENS1_8equal_toIS7_EENS5_INS1_4pairIS8_SB_EEEEEESD_SF_NS5_INSG_IS8_SJ_EEEEEE,
                            __ZN5rs_ol14RSOnlineFusion12_remove_poolERNSt3__16vectorINS_17RS3DSurfaceOnlineENS1_9allocatorIS3_EEEE,
                            __ZN5rs_ol14RSOnlineFusion12noise_removeEv,
                            __ZN5rs_ol14RSOnlineFusion12wall_processERNS_17RSFloorPlanOnlineERKNSt3__14spanIKDv3_fLm18446744073709551615EEES9_S9_PK14RSGeometryMetaRKNS3_6vectorIS5_NS3_9allocatorIS5_EEEERKN2wt6TensorIfLm3EEERKNSK_IfLm2EEERK10TracingMap,
                            __ZN5rs_ol14RSOnlineFusion13opening_mergeEv,
                            __ZN5rs_ol14RSOnlineFusion14_refine_a_wallERNS_17RS3DSurfaceOnlineE,
                            __ZN5rs_ol14RSOnlineFusion15get_linkage_numERKNS_17RS3DSurfaceOnlineERKNSt3__16vectorIS1_NS4_9allocatorIS1_EEEE,
                            __ZN5rs_ol14RSOnlineFusion15is_linkage_wallERKNS_17RS3DSurfaceOnlineERKNSt3__16vectorIS1_NS4_9allocatorIS1_EEEE,
                            __ZN5rs_ol14RSOnlineFusion15opening_processERNS_17RSFloorPlanOnlineERKNSt3__14spanIKDv3_fLm18446744073709551615EEEPK14RSGeometryMetaRKN2wt6TensorIfLm3EEE,
                            __ZN5rs_ol14RSOnlineFusion15standardizationEv,
                            __ZN5rs_ol14RSOnlineFusion15wall_initializeERNS_17RSFloorPlanOnlineERKNSt3__14spanIKDv3_fLm18446744073709551615EEES9_,
                            __ZN5rs_ol14RSOnlineFusion16add_wall_to_poolERNS_17RSFloorPlanOnlineERKNSt3__113unordered_mapINS3_12basic_stringIcNS3_11char_traitsIcEENS3_9allocatorIcEEEENS4_ISA_NS_8RELATIONENS3_4hashISA_EENS3_8equal_toISA_EENS8_INS3_4pairIKSA_SB_EEEEEESD_SF_NS8_INSG_ISH_SK_EEEEEE,
                            __ZN5rs_ol14RSOnlineFusion16cross_wall_mergeERNSt3__16vectorINS_17RS3DSurfaceOnlineENS1_9allocatorIS3_EEEEPK14RSGeometryMetaRKN2wt6TensorIfLm2EEE,
                            __ZN5rs_ol14RSOnlineFusion16find_curved_wallERKNSt3__112basic_stringIcNS1_11char_traitsIcEENS1_9allocatorIcEEEERKNS1_6vectorINS_21RSCurvedSurfaceOnlineENS5_ISB_EEEE,
                            __ZN5rs_ol14RSOnlineFusion16has_std_neighborERKNS_17RS3DSurfaceOnlineERKNSt3__16vectorIS1_NS4_9allocatorIS1_EEEE,
                            __ZN5rs_ol14RSOnlineFusion17corner_refinementEv,
                            __ZN5rs_ol14RSOnlineFusion17structure_removalERNS_17RSFloorPlanOnlineERKNSt3__113unordered_mapINS3_12basic_stringIcNS3_11char_traitsIcEENS3_9allocatorIcEEEENS4_ISA_NS_8RELATIONENS3_4hashISA_EENS3_8equal_toISA_EENS8_INS3_4pairIKSA_SB_EEEEEESD_SF_NS8_INSG_ISH_SK_EEEEEE,
                            __ZN5rs_ol14RSOnlineFusion19_opening_merge_onceERNSt3__16vectorINS_17RS3DSurfaceOnlineENS1_9allocatorIS3_EEEERKNS_13ONLINE_CONFIGE,
                            __ZN5rs_ol14RSOnlineFusion19_shorten_check_helpERNS_17RS3DSurfaceOnlineEPK14RSGeometryMetaRKN2wt6TensorIfLm3EEERKNS7_IfLm2EEERK10TracingMapRKNSt3__16vectorIDv3_fNSH_9allocatorISJ_EEEE,
                            __ZN5rs_ol14RSOnlineFusion19add_opening_to_poolERNS_17RSFloorPlanOnlineERKNSt3__113unordered_mapINS3_12basic_stringIcNS3_11char_traitsIcEENS3_9allocatorIcEEEENS4_ISA_NS_8RELATIONENS3_4hashISA_EENS3_8equal_toISA_EENS8_INS3_4pairIKSA_SB_EEEEEESD_SF_NS8_INSG_ISH_SK_EEEEEE,
                            __ZN5rs_ol14RSOnlineFusion19curved_wall_processERKNSt3__14spanIKDv3_fLm18446744073709551615EEES7_S7_PK14RSGeometryMetaRKNS1_6vectorIS3_NS1_9allocatorIS3_EEEERKN2wt6TensorIfLm3EEE,
                            __ZN5rs_ol14RSOnlineFusion19update_wall_in_poolERNS_17RSFloorPlanOnlineERKNSt3__113unordered_mapINS3_12basic_stringIcNS3_11char_traitsIcEENS3_9allocatorIcEEEENS4_ISA_NS_8RELATIONENS3_4hashISA_EENS3_8equal_toISA_EENS8_INS3_4pairIKSA_SB_EEEEEESD_SF_NS8_INSG_ISH_SK_EEEEEEPK14RSGeometryMetaRKN2wt6TensorIfLm3EEERKNSU_IfLm2EEERK10TracingMapRKNS3_6vectorIDv3_fNS8_IS15_EEEE,
                            __ZN5rs_ol14RSOnlineFusion20_is_noise_small_wallERKNS_17RS3DSurfaceOnlineE,
                            __ZN5rs_ol14RSOnlineFusion20snap_opening_to_wallEv,
                            __ZN5rs_ol14RSOnlineFusion22_cross_wall_merge_onceERNSt3__16vectorINS_17RS3DSurfaceOnlineENS1_9allocatorIS3_EEEEPK14RSGeometryMetaRKN2wt6TensorIfLm2EEEf,
                            __ZN5rs_ol14RSOnlineFusion22_is_partial_overlappedERKNS_17RS3DSurfaceOnlineE,
                            __ZN5rs_ol14RSOnlineFusion22process_outside_removeERNS_17RSFloorPlanOnlineEPK15RSMajorViewInfoPK14RSTemporalMeta,
                            __ZN5rs_ol14RSOnlineFusion22update_opening_in_poolERNS_17RSFloorPlanOnlineERKNSt3__113unordered_mapINS3_12basic_stringIcNS3_11char_traitsIcEENS3_9allocatorIcEEEENS4_ISA_NS_8RELATIONENS3_4hashISA_EENS3_8equal_toISA_EENS8_INS3_4pairIKSA_SB_EEEEEESD_SF_NS8_INSG_ISH_SK_EEEEEEPK14RSGeometryMetaRKN2wt6TensorIfLm3EEE,
                            __ZN5rs_ol14RSOnlineFusion22wall_structure_processEPK14RSGeometryMetaRKN2wt6TensorIfLm2EEE,
                            __ZN5rs_ol14RSOnlineFusion24_opening_size_refinementERNS_17RSFloorPlanOnlineE,
                            __ZN5rs_ol14RSOnlineFusion26_remove_standalone_openingERNS_17RSFloorPlanOnlineERKNSt3__14spanIKDv3_fLm18446744073709551615EEE,
                            __ZN5rs_ol14RSOnlineFusion26remove_wall_with_occlusionERNS_17RSFloorPlanOnlineE,
                            __ZN5rs_ol14RSOnlineFusion31get_line_dist_with_intersectionERKN6rshape8RSLine2DES4_,
                            __ZN5rs_ol14RSOnlineFusion34_reject_help_openning_double_checkERNS_17RS3DSurfaceOnlineERNSt3__16vectorIS1_NS3_9allocatorIS1_EEEES8_S8_PK14RSGeometryMetaRKN2wt6TensorIfLm3EEE,
                            __ZN5rs_ol14RSOnlineFusion34need_curved_wall_process_judgementERKNS_17RSFloorPlanOnlineERKNSt3__14spanIKDv3_fLm18446744073709551615EEE,
                            __ZN5rs_ol14RSOnlineFusion35partial_overlap_acute_noise_removalEv,
                            __ZN5rs_ol14RSOnlineFusion36remove_opening_fp_at_close_door_areaERNS_17RSFloorPlanOnlineE,
                            __ZN5rs_ol14RSOnlineFusion37remove_partial_overlapped_small_wallsEv,
                            __ZN5rs_ol14RSOnlineFusion5clearEv,
                            __ZN5rs_ol14RSOnlineFusion6fusionERNS_17RSFloorPlanOnlineERK10TracingMapPK14RSGeometryMetaRKNSt3__16vectorIDv3_fNS9_9allocatorISB_EEEESG_RKN2wt6TensorIfLm3EEEPK15RSMajorViewInfo,
                            __ZN5rs_ol14RSOnlineFusion7processERNS_17RSFloorPlanOnlineERK10TracingMapPK14RSTemporalMetaPK14RSGeometryMetaRKN2wt6TensorIfLm3EEEPK15RSMajorViewInfo,
                            __ZN5rs_ol14RSOnlineFusion9_cut_wallERKNS_17RS3DSurfaceOnlineES3_,
                            __ZN5rs_ol14RSOnlineFusionC1Ev,
                            __ZN5rs_ol14RSOnlineFusionC2Ev,
                            __ZN5rs_ol14find_diff_lineERKN6rshape8RSLine2DES3_,
                            __ZN5rs_ol15CurvedWallUtils17get_intersectionsERKN6rshape8RSLine3DERKNS_8RSCircleEfRKNS_20ONLINE_CURVED_CONFIGE,
                            __ZN5rs_ol15CurvedWallUtils18extend_curved_wallERKNS_21RSCurvedSurfaceOnlineES3_RKN2wt6TensorIfLm2EEEPK14RSGeometryMetaRKNS_20ONLINE_CURVED_CONFIGE,
                            __ZN5rs_ol15CurvedWallUtils18update_curved_wallERNS_21RSCurvedSurfaceOnlineES2_RKN2wt6TensorIfLm3EEEPK14RSGeometryMetaRKNS_20ONLINE_CURVED_CONFIGE,
                            __ZN5rs_ol15CurvedWallUtils22get_endpoints_coverageERKNS_17RS3DSurfaceOnlineERKNS_21RSCurvedSurfaceOnlineERKNS_20ONLINE_CURVED_CONFIGE,
                            __ZN5rs_ol15CurvedWallUtils22get_project_percentageERKNS_17RS3DSurfaceOnlineERKNS_21RSCurvedSurfaceOnlineERKNS_20ONLINE_CURVED_CONFIGE,
                            __ZN5rs_ol15CurvedWallUtils23get_inner_intersectionsERKN6rshape8RSLine3DERKNS_8RSCircleERKNS_20ONLINE_CURVED_CONFIGE,
                            __ZN5rs_ol15CurvedWallUtils31remove_low_quality_curved_wallsERNSt3__16vectorINS_21RSCurvedSurfaceOnlineENS1_9allocatorIS3_EEEERKNS2_INS_17RS3DSurfaceOnlineENS4_IS8_EEEERKNS_20ONLINE_CURVED_CONFIGERKNS_13ONLINE_CONFIGE,
                            __ZN5rs_ol15CurvedWallUtils34curved_wall_and_normal_wall_fusionERNSt3__16vectorINS_21RSCurvedSurfaceOnlineENS1_9allocatorIS3_EEEERNS2_INS_17RS3DSurfaceOnlineENS4_IS8_EEEERKNS_20ONLINE_CURVED_CONFIGERKNS_13ONLINE_CONFIGE,
                            __ZN5rs_ol15CurvedWallUtils37remove_low_quality_curved_walls_finalERNSt3__16vectorINS_21RSCurvedSurfaceOnlineENS1_9allocatorIS3_EEEERKNS2_INS_17RS3DSurfaceOnlineENS4_IS8_EEEERKNS_20ONLINE_CURVED_CONFIGE,
                            __ZN5rs_ol15CurvedWallUtils40get_curved_wall_and_normal_wall_relationERKNS_17RS3DSurfaceOnlineERKNS_21RSCurvedSurfaceOnlineERKNS_20ONLINE_CURVED_CONFIGE,
                            __ZN5rs_ol15CurvedWallUtils43refine_curved_wall_and_normal_wall_relationERKNSt3__16vectorINS_21RSCurvedSurfaceOnlineENS1_9allocatorIS3_EEEERKNS2_INS_17RS3DSurfaceOnlineENS4_IS9_EEEERNS1_13unordered_mapINS1_12basic_stringIcNS1_11char_traitsIcEENS4_IcEEEENSE_ISJ_NS_31CurvedWallAndNormalWallRelationENS1_4hashISJ_EENS1_8equal_toISJ_EENS4_INS1_4pairIKSJ_SK_EEEEEESM_SO_NS4_INSP_ISQ_ST_EEEEEERKNS_20ONLINE_CURVED_CONFIGERKNS_13ONLINE_CONFIGE,
                            __ZN5rs_ol15check_lost_lineERKNSt3__16vectorINS_17RS3DSurfaceOnlineENS0_9allocatorIS2_EEEES7_RKNS0_8optionalIS2_EERKNS1_IDv3_fNS3_ISC_EEEE,
                            __ZN5rs_ol15get_angle_thresERKN6rshape8RSLine2DES3_RKNS_13ONLINE_CONFIGE,
                            __ZN5rs_ol16ImageCircleUtils12get_tm_scoreERKDv3_fRKN2wt6TensorIfLm2EEEfi,
                            __ZN5rs_ol16ImageCircleUtils19get_point_in_circleERKDv2_fff,
                            __ZN5rs_ol16ImageCircleUtils25get_tm_scores_with_pointsERKN2wt6TensorIfLm2EEERKNSt3__16vectorIDv2_iNS6_9allocatorIS8_EEEE,
                            __ZN5rs_ol16RSStructureGraph18is_simplified_wallERKNS_17RS3DSurfaceOnlineERKNS_13ONLINE_CONFIGE,
                            __ZN5rs_ol16RSStructureGraph5clearEv,
                            __ZN5rs_ol16RSStructureGraph6updateERKNSt3__16vectorINS_17RS3DSurfaceOnlineENS1_9allocatorIS3_EEEERKNS_13ONLINE_CONFIGERKNS_23ONLINE_STRUCTURE_CONFIGE,
                            __ZN5rs_ol16RSStructureGraphC1Ev,
                            __ZN5rs_ol16RSStructureGraphC2Ev,
                            __ZN5rs_ol16RSStructureGraphD0Ev,
                            __ZN5rs_ol16RSStructureGraphD1Ev,
                            __ZN5rs_ol16RSStructureGraphD2Ev,
                            __ZN5rs_ol18RSOnlineRefinement17fitting_occlusionERNSt3__16vectorINS_17RS3DSurfaceOnlineENS1_9allocatorIS3_EEEERKS6_RKNS2_IDv3_fNS4_ISA_EEEERKN2wt6TensorIDhLm2EEERKNSG_IDhLm3EEEPK14RSGeometryMeta,
                            __ZN5rs_ol18RSOnlineRefinement17fitting_occlusionERNSt3__16vectorINS_17RS3DSurfaceOnlineENS1_9allocatorIS3_EEEERKS6_RKNS2_IDv3_fNS4_ISA_EEEERKN2wt6TensorIfLm2EEERKNSG_IfLm3EEEPK14RSGeometryMeta,
                            __ZN5rs_ol18RSOnlineRefinement21get_density_sum_valueERKN2wt6TensorIDhLm2EEERKDv2_fS8_RKDv3_dSB_f,
                            __ZN5rs_ol18RSOnlineRefinement21get_density_sum_valueERKN2wt6TensorIfLm2EEERKDv2_fS8_RKDv3_dSB_f,
                            __ZN5rs_ol18RSOnlineRefinement28get_density_map_with_slicingERKN2wt6TensorIDhLm2EEERKNS2_IDhLm3EEEfi,
                            __ZN5rs_ol18RSOnlineRefinement28get_density_map_with_slicingERKN2wt6TensorIfLm2EEERKNS2_IfLm3EEEfi,
                            __ZN5rs_ol18RSOnlineRefinement29remove_occlusion_surface_wallERNSt3__16vectorINS_17RS3DSurfaceOnlineENS1_9allocatorIS3_EEEERKS6_RKNS2_IDv3_fNS4_ISA_EEEERKN2wt6TensorIDhLm2EEEPK14RSGeometryMeta,
                            __ZN5rs_ol18RSOnlineRefinement29remove_occlusion_surface_wallERNSt3__16vectorINS_17RS3DSurfaceOnlineENS1_9allocatorIS3_EEEERKS6_RKNS2_IDv3_fNS4_ISA_EEEERKN2wt6TensorIfLm2EEEPK14RSGeometryMeta,
                            __ZN5rs_ol18RSOnlineRefinement7processERNS_17RSFloorPlanOnlineERKS1_P14RSGeometryMetaRKN2wt6TensorIDhLm2EEERKNS8_IDhLm3EEESB_P15RSMajorViewInfo,
                            __ZN5rs_ol18RSOnlineRefinement7processERNS_17RSFloorPlanOnlineERKS1_P14RSGeometryMetaRKN2wt6TensorIfLm2EEERKNS8_IfLm3EEESB_P15RSMajorViewInfo,
                            __ZN5rs_ol18RSOnlineRefinementC1Ev,
                            __ZN5rs_ol18RSOnlineRefinementC2Ev,
                            __ZN5rs_ol18is_tracing_openingERKN6rshape8RSLine2DERK10TracingMapRKNSt3__16vectorIDv3_fNS7_9allocatorIS9_EEEERKNS_13ONLINE_CONFIGE,
                            __ZN5rs_ol19CurvedWallDetection16circle_detectionERKN2wt6TensorIfLm2EEEPK14RSGeometryMetaRKNS_20ONLINE_CURVED_CONFIGE,
                            __ZN5rs_ol19CurvedWallDetection16get_orientationsERKDv3_fRKN2wt6TensorIfLm2EEERKNS_20ONLINE_CURVED_CONFIGE,
                            __ZN5rs_ol19CurvedWallDetection3nmsERNSt3__16vectorINS_21RSCurvedSurfaceOnlineENS1_9allocatorIS3_EEEERKNS_20ONLINE_CURVED_CONFIGE,
                            __ZN5rs_ol19CurvedWallDetection7processERKN2wt6TensorIfLm3EEEPK14RSGeometryMetaRKNS_20ONLINE_CURVED_CONFIGE,
                            __ZN5rs_ol19cut_active_segmentsERKN6rshape8RSLine2DES3_RNSt3__16vectorIS1_NS4_9allocatorIS1_EEEES9_f,
                            __ZN5rs_ol19get_major_view_lineERKNSt3__16vectorIDv3_fNS0_9allocatorIS2_EEEES7_S7_f,
                            __ZN5rs_ol19parallel_wall_mergeERNSt3__16vectorINS_17RS3DSurfaceOnlineENS0_9allocatorIS2_EEEERKNS_13ONLINE_CONFIGE,
                            __ZN5rs_ol19within_active_linesERKDv2_fRKNSt3__16vectorIN6rshape8RSLine2DENS3_9allocatorIS6_EEEEf,
                            __ZN5rs_ol20find_attached_parentERKNS_17RS3DSurfaceOnlineERKNSt3__16vectorIS0_NS3_9allocatorIS0_EEEERKNS_13ONLINE_CONFIGE,
                            __ZN5rs_ol20is_parallel_neighborERKNS_17RS3DSurfaceOnlineES2_RKNS_13ONLINE_CONFIGE,
                            __ZN5rs_ol21RSCurvedSurfaceOnline20convert_to_wall_listERKNS_20ONLINE_CURVED_CONFIGERKNS_13ONLINE_CONFIGE,
                            __ZN5rs_ol21build_structure_graphERKNSt3__16vectorINS_17RS3DSurfaceOnlineENS0_9allocatorIS2_EEEERNS1_IPNS_11RSStructureENS3_IS9_EEEERKNS_13ONLINE_CONFIGERKNS_23ONLINE_STRUCTURE_CONFIGE,
                            __ZN5rs_ol21check_and_extend_lineERKN2wt6TensorIDhLm2EEERKN6rshape8RSLine2DEfPK14RSGeometryMeta,
                            __ZN5rs_ol21check_and_extend_lineERKN2wt6TensorIfLm2EEERKN6rshape8RSLine2DEfPK14RSGeometryMeta,
                            __ZN5rs_ol21get_surface_relationsERKNSt3__16vectorINS_17RS3DSurfaceOnlineENS0_9allocatorIS2_EEEES7_RKNS_13ONLINE_CONFIGE,
                            __ZN5rs_ol22RSLocalStandardization22get_neighbor_relationsERNS_17RS3DSurfaceOnlineERNSt3__16vectorIS1_NS3_9allocatorIS1_EEEE,
                            __ZN5rs_ol22RSLocalStandardization24standardize_l_shape_wallERNS_17RS3DSurfaceOnlineERNSt3__16vectorINS_16NeighborRelationENS3_9allocatorIS5_EEEE,
                            __ZN5rs_ol22RSLocalStandardization24standardize_t_shape_wallERNS_17RS3DSurfaceOnlineERNSt3__16vectorINS_16NeighborRelationENS3_9allocatorIS5_EEEE,
                            __ZN5rs_ol22RSLocalStandardization24standardize_z_shape_wallERNS_17RS3DSurfaceOnlineERNSt3__16vectorINS_16NeighborRelationENS3_9allocatorIS5_EEEE,
                            __ZN5rs_ol22RSLocalStandardization31standardize_parallel_shape_wallERNS_17RS3DSurfaceOnlineERNSt3__16vectorINS_16NeighborRelationENS3_9allocatorIS5_EEEERNS4_IS1_NS6_IS1_EEEE,
                            __ZN5rs_ol22RSLocalStandardization7processERNS_17RSFloorPlanOnlineE,
                            __ZN5rs_ol22RSLocalStandardizationC1Ev,
                            __ZN5rs_ol22RSLocalStandardizationC2Ev,
                            __ZN5rs_ol22RSLocalStandardizationD0Ev,
                            __ZN5rs_ol22RSLocalStandardizationD1Ev,
                            __ZN5rs_ol22RSLocalStandardizationD2Ev,
                            __ZN5rs_ol22check_T_type_occlusionERKNSt3__16vectorINS_17RS3DSurfaceOnlineENS0_9allocatorIS2_EEEEiNS1_INS_14EndpointStatusENS3_IS8_EEEERKDv2_fRNS1_IN6rshape8RSLine2DENS3_ISF_EEEE,
                            __ZN5rs_ol22is_parallel_overlappedERKNS_17RS3DSurfaceOnlineES2_RKNS_13ONLINE_CONFIGE,
                            __ZN5rs_ol23RSTmOnlineTMScoreHelper12get_tm_scoreERKNSt3__16vectorIN6rshape8RSLine2DENS1_9allocatorIS4_EEEEPK14RSGeometryMetaRKN2wt6TensorIfLm2EEE,
                            __ZN5rs_ol23check_visible_in_cameraERKNSt3__16vectorINS_17RS3DSurfaceOnlineENS0_9allocatorIS2_EEEEiRKDv2_fRKNS1_IDv3_fNS3_ISB_EEEE,
                            __ZN5rs_ol23filter_open_at_endpointERNSt3__16vectorINS_17RS3DSurfaceOnlineENS0_9allocatorIS2_EEEERKNS1_IDv3_fNS3_IS7_EEEERKN2wt6TensorIDhLm3EEERKDv2_fRKDv2_dSM_RKNSD_IiLm3EEESP_,
                            __ZN5rs_ol23filter_open_at_endpointERNSt3__16vectorINS_17RS3DSurfaceOnlineENS0_9allocatorIS2_EEEERKNS1_IDv3_fNS3_IS7_EEEERKN2wt6TensorIfLm3EEERKDv2_fRKDv2_dSM_RKNSD_IiLm3EEESP_,
                            __ZN5rs_ol23point_occluded_by_wallsERKDv2_fS2_iRKNSt3__16vectorINS_17RS3DSurfaceOnlineENS3_9allocatorIS5_EEEE,
                            __ZN5rs_ol24cal_z_slice_density_histERKN6rshape8RSLine2DERKN2wt6TensorIDhLm3EEERKNS5_IiLm3EEEifi,
                            __ZN5rs_ol24cal_z_slice_density_histERKN6rshape8RSLine2DERKN2wt6TensorIfLm3EEERKNS5_IiLm3EEEifi,
                            __ZN5rs_ol24check_occlusion_relationERKN6rshape8RSLine2DES3_ff,
                            __ZN5rs_ol24find_line_in_density_mapERKNSt3__16vectorIDv3_fNS0_9allocatorIS2_EEEERKN2wt6TensorIDhLm2EEEPK14RSGeometryMetaff,
                            __ZN5rs_ol24find_line_in_density_mapERKNSt3__16vectorIDv3_fNS0_9allocatorIS2_EEEERKN2wt6TensorIfLm2EEEPK14RSGeometryMetaff,
                            __ZN5rs_ol25_parallel_wall_merge_onceERNSt3__16vectorINS_17RS3DSurfaceOnlineENS0_9allocatorIS2_EEEERKNS_13ONLINE_CONFIGE,
                            __ZN5rs_ol26get_major_wall_convex_hullERKNSt3__16vectorIDv3_fNS0_9allocatorIS2_EEEES7_S7_ff,
                            __ZN5rs_ol27construct_z_shape_structureERKNSt3__16vectorINS_17RS3DSurfaceOnlineENS0_9allocatorIS2_EEEERKS2_RKNS_13ONLINE_CONFIGERKNS_23ONLINE_STRUCTURE_CONFIGE,
                            __ZN5rs_ol27line_fitting_on_density_mapERKN2wt6TensorIDhLm2EEEPK14RSGeometryMetaff,
                            __ZN5rs_ol27line_fitting_on_density_mapERKN2wt6TensorIfLm2EEEPK14RSGeometryMetaff,
                            __ZN5rs_ol28find_the_first_point_in_hullERKNSt3__16vectorIDv3_fNS0_9allocatorIS2_EEEERKDv2_fSA_f,
                            __ZN5rs_ol30line_fitting_on_density_map_v2ERKN2wt6TensorIDhLm2EEERKDv3_dS7_ff,
                            __ZN5rs_ol30line_fitting_on_density_map_v2ERKN2wt6TensorIfLm2EEERKDv3_dS7_ff,
                            __ZN5rs_ol33filter_over_prediction_by_outsideERNSt3__16vectorINS_17RS3DSurfaceOnlineENS0_9allocatorIS2_EEEERKNS1_IDv3_fNS3_IS7_EEEERKDv2_fSB_,
                            __ZN5rs_ol33refine_wall_corner_to_nearby_wallERNS_17RS3DSurfaceOnlineERKNSt3__16vectorIS0_NS2_9allocatorIS0_EEEEff,
                            __ZN5rs_ol38line_fitting_on_density_map_v2_float32ERKN2wt6TensorIfLm2EEERKDv3_dS7_ff,
                            __ZN5rs_ol8RSCircle19get_point_in_circleERKDv3_fff,
                            __ZN5rs_ol8RSCircle25wrapper_from_image_circleERKNS_11ImageCircleEPK14RSGeometryMeta,
                            __ZN6DBSCAN13expandClusterE6Point_i,
                            __ZN6DBSCAN16calculateClusterE6Point_,
                            __ZN6DBSCAN3runEv,
                            __ZN6rs_ddp32RSDeduplicateOpeningOpenDoorCore10find_matchERKN6rshape8RSLine2DERKNSt3__16vectorIN2wt6TensorIfLm3EEENS5_9allocatorIS9_EEEERNS8_IiLm1EEE,
                            __ZN6rs_ddp32RSDeduplicateOpeningOpenDoorCore13line_2d_matchERKN6rshape8RSLine2DES4_,
                            __ZN6rs_ddp32RSDeduplicateOpeningOpenDoorCore14_scene_processERN8lcnn_spp5SceneERKNS1_12LineRelationE,
                            __ZN6rs_ddp32RSDeduplicateOpeningOpenDoorCore19snap_to_parent_wallERNSt3__16vectorIN5rs_ol17RS3DSurfaceOnlineENS1_9allocatorIS4_EEEERNS3_17RSFloorPlanOnlineE,
                            __ZN6rs_ddp32RSDeduplicateOpeningOpenDoorCore20set_parent_wall_uuidERNSt3__16vectorIN5rs_ol17RS3DSurfaceOnlineENS1_9allocatorIS4_EEEERKNS2_IN6rshape8RSLine2DENS5_ISA_EEEERKS7_RKNS2_IN2wt6TensorIfLm3EEENS5_ISJ_EEEE,
                            __ZN6rs_ddp32RSDeduplicateOpeningOpenDoorCore37remove_opening_overlapping_with_doorsERNSt3__16vectorIN5rs_ol17RS3DSurfaceOnlineENS1_9allocatorIS4_EEEES8_,
                            __ZN6rs_ddp32RSDeduplicateOpeningOpenDoorCore7processEP11RSFloorPlan,
                            __ZN6rs_ddp32RSDeduplicateOpeningOpenDoorCoreC1Ev,
                            __ZN6rs_ddp32RSDeduplicateOpeningOpenDoorCoreC2Ev,
                            __ZN6rs_ddp32RSDeduplicateOpeningOpenDoorCoreD0Ev,
                            __ZN6rs_ddp32RSDeduplicateOpeningOpenDoorCoreD1Ev,
                            __ZN6rs_ddp32RSDeduplicateOpeningOpenDoorCoreD2Ev,
                            __ZN6rs_erf13EdgeProjector23get_visible_image_linesERK15RS3DSurfaceQuadRK13simd_float4x4RK13simd_float3x3,
                            __ZN6rs_erf14EdgeRefineNode12set_endpointEiDv2_f,
                            __ZN6rs_erf14EdgeRefineNode13adjust_heightEf,
                            __ZN6rs_erf14EdgeRefineNode15adjust_endpointEfi,
                            __ZN6rs_erf14EdgeRefineNode15reset_with_quadERK15RS3DSurfaceQuad,
                            __ZN6rs_erf14EdgeRefineNode18adjust_connectionsERNSt3__13mapINS1_12basic_stringIcNS1_11char_traitsIcEENS1_9allocatorIcEEEES0_NS1_4lessIS8_EENS6_INS1_4pairIKS8_S0_EEEEEE,
                            __ZN6rs_erf14EdgeRefineNode18update_connectionsERKNSt3__13mapINS1_12basic_stringIcNS1_11char_traitsIcEENS1_9allocatorIcEEEES0_NS1_4lessIS8_EENS6_INS1_4pairIKS8_S0_EEEEEES8_f,
                            __ZN6rs_erf14EdgeRefineNode19compute_hline_angleEi,
                            __ZN6rs_erf14EdgeRefineNode19compute_vline_angleEi,
                            __ZN6rs_erf14EdgeRefineNode20update_neighbor_infoERNSt3__13mapINS1_12basic_stringIcNS1_11char_traitsIcEENS1_9allocatorIcEEEES0_NS1_4lessIS8_EENS6_INS1_4pairIKS8_S0_EEEEEERKNS1_6vectorI15RS3DSurfaceQuadNS6_ISI_EEEE,
                            __ZN6rs_erf14EdgeRefineNode22update_connection_infoERNSt3__13mapINS1_12basic_stringIcNS1_11char_traitsIcEENS1_9allocatorIcEEEES0_NS1_4lessIS8_EENS6_INS1_4pairIKS8_S0_EEEEEE,
                            __ZN6rs_erf14EdgeRefineNode22update_occluded_statusERNSt3__13mapINS1_12basic_stringIcNS1_11char_traitsIcEENS1_9allocatorIcEEEES0_NS1_4lessIS8_EENS6_INS1_4pairIKS8_S0_EEEEEERK13simd_float4x4f,
                            __ZN6rs_erf14EdgeRefineNode27update_extreme_angle_statusERNSt3__13mapINS1_12basic_stringIcNS1_11char_traitsIcEENS1_9allocatorIcEEEES0_NS1_4lessIS8_EENS6_INS1_4pairIKS8_S0_EEEEEERK13simd_float4x4,
                            __ZN6rs_erf14EdgeRefineNode29compute_uniform_height_statusERKNSt3__16vectorIDv3_fNS1_9allocatorIS3_EEEE,
                            __ZN6rs_erf14EdgeRefineNode29update_small_wall_connectionsERKNSt3__16vectorIPS0_NS1_9allocatorIS3_EEEEmff,
                            __ZN6rs_erf14EdgeRefinement15fuse_refinementERKNSt3__13mapINS1_4pairIiiEENS_16RefinementResultENS1_4lessIS4_EENS1_9allocatorINS3_IKS4_S5_EEEEEE15RS3DSurfaceTypefb,
                            __ZN6rs_erf14EdgeRefinement19build_instance_dictE15RS3DSurfaceTypeP7NSArrayIP11RS3DSurfaceERK13simd_float4x4RK13simd_float3x3RKNSt3__16vectorI15RS3DSurfaceQuadNSD_9allocatorISF_EEEE,
                            __ZN6rs_erf14EdgeRefinement19clearSemanticBufferEv,
                            __ZN6rs_erf14EdgeRefinement21_fuse_refinement_wallERKNSt3__13mapINS1_4pairIiiEENS_16RefinementResultENS1_4lessIS4_EENS1_9allocatorINS3_IKS4_S5_EEEEEE15RS3DSurfaceTypefb,
                            __ZN6rs_erf14EdgeRefinement22clear_fused_refinementERKNSt3__13mapINS1_12basic_stringIcNS1_11char_traitsIcEENS1_9allocatorIcEEEENS_14EdgeRefineNodeENS1_4lessIS8_EENS6_INS1_4pairIKS8_S9_EEEEEE15RS3DSurfaceType,
                            __ZN6rs_erf14EdgeRefinement24_set_previous_refinementE15RS3DSurfaceTypeRNSt3__13mapINS2_12basic_stringIcNS2_11char_traitsIcEENS2_9allocatorIcEEEENS_14EdgeRefineNodeENS2_4lessIS9_EENS7_INS2_4pairIKS9_SA_EEEEEE,
                            __ZN6rs_erf14EdgeRefinement24prepare_refinement_inputE15RS3DSurfaceTypePU17objcproto7RSFrame11objc_object,
                            __ZN6rs_erf14EdgeRefinement26check_refinement_conditionE15RS3DSurfaceTypeRKNSt3__13mapINS2_12basic_stringIcNS2_11char_traitsIcEENS2_9allocatorIcEEEENS_14EdgeRefineNodeENS2_4lessIS9_EENS7_INS2_4pairIKS9_SA_EEEEEE,
                            __ZN6rs_erf14EdgeRefinement28_fuse_refinement_door_windowERKNSt3__13mapINS1_4pairIiiEENS_16RefinementResultENS1_4lessIS4_EENS1_9allocatorINS3_IKS4_S5_EEEEEE15RS3DSurfaceTypefbffff,
                            __ZN6rs_erf14EdgeRefinement31_apply_wall_boundary_constraintERNSt3__13mapINS1_4pairIiiEENS_16RefinementResultENS1_4lessIS4_EENS1_9allocatorINS3_IKS4_S5_EEEEEE,
                            __ZN6rs_erf14EdgeRefinement32generate_semantic_buffer_on_wideEPU17objcproto7RSFrame11objc_object,
                            __ZN6rs_erf14EdgeRefinement5clearEv,
                            __ZN6rs_erf14EdgeRefinement7processE15RS3DSurfaceTypePU17objcproto7RSFrame11objc_objectP7NSArrayIP11RS3DSurfaceERKNSt3__16vectorI15RS3DSurfaceQuadNS9_9allocatorISB_EEEEb,
                            __ZN6rs_erf14EdgeRefinement7processE15RS3DSurfaceTypeRKN2wt6TensorIhLm2EEES6_P7NSArrayIP11RS3DSurfaceERK13simd_float4x4RK13simd_float3x3RKNSt3__16vectorI15RS3DSurfaceQuadNSI_9allocatorISK_EEEEb,
                            __ZN6rs_erf14EdgeRefinement9reprojectE15RS3DSurfaceTypeRNSt3__13mapINS2_12basic_stringIcNS2_11char_traitsIcEENS2_9allocatorIcEEEENS_14EdgeRefineNodeENS2_4lessIS9_EENS7_INS2_4pairIKS9_SA_EEEEEEP7NSArrayIP11RS3DSurfaceE,
                            __ZN6rs_erf14EdgeRefinementC1ERKNS_16RefinementConfigE,
                            __ZN6rs_erf14EdgeRefinementC2ERKNS_16RefinementConfigE,
                            __ZN6rs_erf14EdgeRefinementD1Ev,
                            __ZN6rs_erf14EdgeRefinementD2Ev,
                            __ZN6rs_erf25SingleFrameEdgeRefinement11is_occludedERKN6rshape8RSLine2DERKN2wt6TensorIbLm2EEEif,
                            __ZN6rs_erf25SingleFrameEdgeRefinement13_process_wallERKN2wt6TensorIiLm2EEERKNS2_IhLm2EEERKNSt3__13mapINS9_12basic_stringIcNS9_11char_traitsIcEENS9_9allocatorIcEEEENS_14EdgeRefineNodeENS9_4lessISG_EENSE_INS9_4pairIKSG_SH_EEEEEE,
                            __ZN6rs_erf25SingleFrameEdgeRefinement16process_one_wallERKNSt3__112basic_stringIcNS1_11char_traitsIcEENS1_9allocatorIcEEEERKN2wt6TensorImLm2EEESE_RKNSB_IbLm2EEERKNS_14EdgeRefineNodeE,
                            __ZN6rs_erf25SingleFrameEdgeRefinement20_process_door_windowERKN2wt6TensorIhLm2EEERKNSt3__13mapINS6_12basic_stringIcNS6_11char_traitsIcEENS6_9allocatorIcEEEENS_14EdgeRefineNodeENS6_4lessISD_EENSB_INS6_4pairIKSD_SE_EEEEEE15RS3DSurfaceType,
                            __ZN6rs_erf25SingleFrameEdgeRefinement20process_one_endpointERKNSt3__112basic_stringIcNS1_11char_traitsIcEENS1_9allocatorIcEEEERKN2wt6TensorImLm2EEERKNSB_IbLm2EEERKNS_14EdgeRefineNodeEi,
                            __ZN6rs_erf25SingleFrameEdgeRefinement20process_one_instanceENSt3__112basic_stringIcNS1_11char_traitsIcEENS1_9allocatorIcEEEERKN2wt6TensorImLm2EEERKNS9_IiLm2EEERKNS_14EdgeRefineNodeE15RS3DSurfaceType,
                            __ZN6rs_erf25SingleFrameEdgeRefinement21compute_in_box_pointsERKN2wt6TensorImLm2EEERKN6rshape8RSLine2DEf,
                            __ZN6rs_erf25SingleFrameEdgeRefinement21compute_line_coverageERKNSt3__16vectorIDv2_fNS1_9allocatorIS3_EEEERKN6rshape8RSLine2DEfm,
                            __ZN6rs_erf25SingleFrameEdgeRefinement21get_search_parametersEf,
                            __ZN6rs_erf25SingleFrameEdgeRefinement23get_coordinates_of_lineERKN6rshape8RSLine2DEi,
                            __ZN6rs_erf25SingleFrameEdgeRefinement25meet_refinement_conditionERKNS_14EdgeRefineNodeEi,
                            __ZN6rs_erf25SingleFrameEdgeRefinement31adjust_one_endpoint_door_windowENSt3__112basic_stringIcNS1_11char_traitsIcEENS1_9allocatorIcEEEERKN2wt6TensorImLm2EEERKNS9_IiLm2EEERKNS_14EdgeRefineNodeEi15RS3DSurfaceType,
                            __ZN6rs_erf25SingleFrameEdgeRefinement31check_wall_refinement_conditionERKNSt3__13mapINS1_12basic_stringIcNS1_11char_traitsIcEENS1_9allocatorIcEEEENS_14EdgeRefineNodeENS1_4lessIS8_EENS6_INS1_4pairIKS8_S9_EEEEEE,
                            __ZN6rs_erf25SingleFrameEdgeRefinement33get_search_parameters_door_windowEfi,
                            __ZN6rs_erf25SingleFrameEdgeRefinement38check_door_window_refinement_conditionE15RS3DSurfaceTypeRKNSt3__13mapINS2_12basic_stringIcNS2_11char_traitsIcEENS2_9allocatorIcEEEENS_14EdgeRefineNodeENS2_4lessIS9_EENS7_INS2_4pairIKS9_SA_EEEEEE,
                            __ZN6rs_erf25SingleFrameEdgeRefinement7processE15RS3DSurfaceTypeRKN2wt6TensorIiLm2EEERKNS3_IhLm2EEERKNSt3__13mapINSA_12basic_stringIcNSA_11char_traitsIcEENSA_9allocatorIcEEEENS_14EdgeRefineNodeENSA_4lessISH_EENSF_INSA_4pairIKSH_SI_EEEEEERK13simd_float4x4RK13simd_float3x3,
                            __ZN6rs_rar17RecessedAreaUtils11assign_uuidEP14RSRecessedAreaS2_,
                            __ZN6rs_rar17RecessedAreaUtils12find_overlapEP11RS3DSurfaceP7NSArrayIS2_E,
                            __ZN6rs_rar17RecessedAreaUtils13find_neighborEP11RS3DSurfaceP7NSArrayIS2_E,
                            __ZN6rs_rar17RecessedAreaUtils15initial_surfaceEP11RS3DSurface22RSIndividualStatusTypeRKDv3_fS6_,
                            __ZN6rs_rar17RecessedAreaUtils16find_parent_wallEP11RS3DSurfaceP7NSArrayIS2_E,
                            __ZN6rs_rar17RecessedAreaUtils19find_candidate_areaEP7NSArrayIP11RS3DSurfaceES5_RKNSt3__112basic_stringIcNS6_11char_traitsIcEENS6_9allocatorIcEEEEfff,
                            __ZN6rs_rar17RecessedAreaUtils19find_child_surfacesEP11RS3DSurfaceP7NSArrayIS2_E,
                            __ZN6rs_rar17RecessedAreaUtils20bay_window_fp_removeEP7NSArrayIP11RS3DSurfaceES5_RKNSt3__16vectorINS_8AreaInfoENS6_9allocatorIS8_EEEEf,
                            __ZN6rs_rar17RecessedAreaUtils21update_surface_statusEP14RSRecessedArea22RSIndividualStatusType,
                            __ZN6rs_rar17RecessedAreaUtils24extend_2d_quad_to_2d_boxERK15RS3DSurfaceQuadRKNSt3__16vectorIfNS4_9allocatorIfEEEERKDv2_fSD_,
                            __ZN6rs_rar17RecessedAreaUtils26calculate_bay_window_widthERKN6rshape8RSLine2DES4_P11RS3DSurfacef,
                            __ZN6rs_rar17RecessedAreaUtils27construct_recessed_area_boxERKN6rshape8RSLine2DES4_S4_S4_S4_P11RS3DSurfaceff,
                            __ZN6rs_rar17RecessedAreaUtils32bay_window_wall_side_wall_removeEP7NSArrayIP11RS3DSurfaceES5_RKNSt3__16vectorINS_8AreaInfoENS6_9allocatorIS8_EEEE,
                            __ZN6rs_rar17RecessedAreaUtils36bay_window_recessed_area_reconstructEP7NSArrayIP11RS3DSurfaceES5_RKNSt3__113unordered_mapINS6_12basic_stringIcNS6_11char_traitsIcEENS6_9allocatorIcEEEENS_13RecessedParamENS6_4hashISD_EENS6_8equal_toISD_EENSB_INS6_4pairIKSD_SE_EEEEEERKNS6_6vectorINS_8AreaInfoENSB_ISR_EEEE,
                            __ZN6rs_rar17RecessedAreaUtils36get_surface_vector_and_normal_vectorEP11RS3DSurfaceRKNSt3__18optionalIU8__strongS2_EERKNS3_12basic_stringIcNS3_11char_traitsIcEENS3_9allocatorIcEEEE,
                            __ZN6rs_rar22kOnlineBayWindowConfigE,
                            __ZN6rshape10merge_wallEP14NSMutableArrayIP11RS3DSurfaceEff,
                            __ZN6rshape10on_segmentERKDv2_fS2_S2_,
                            __ZN6rshape10split_onceEP14NSMutableArrayIP11RS3DSurfaceES2_,
                            __ZN6rshape11_merge_onceEP14NSMutableArrayIP11RS3DSurfaceEff,
                            __ZN6rshape11is_an_pointER15RS3DSurfaceQuad,
                            __ZN6rshape11orientationERKDv2_fS2_S2_,
                            __ZN6rshape12rotate_pointEDv2_ff,
                            __ZN6rshape13compute_angleERKNS_8RSLine2DES2_,
                            __ZN6rshape13map_line2lineERKNS_8RSLine2DES2_f,
                            __ZN6rshape14attach_to_wallEPK11RS3DSurfaceS2_fff,
                            __ZN6rshape14get_camera_ptsERK13simd_float4x4RK13simd_float3x3ii,
                            __ZN6rshape14get_match_infoERKNS_8RSLine2DES2_,
                            __ZN6rshape14map_point2lineERKDv2_fRKNS_8RSLine2DE,
                            __ZN6rshape14point_distanceERKDv2_fS2_,
                            __ZN6rshape16has_intersectionERKDv2_fS2_S2_S2_,
                            __ZN6rshape16has_intersectionERKNS_8RSLine2DES2_,
                            __ZN6rshape16is_visible_pointEDv2_fii,
                            __ZN6rshape16map_line2line_v2ERKNS_8RSLine2DES2_f,
                            __ZN6rshape17closest_endpointsERKNS_8RSLine2DES2_,
                            __ZN6rshape17snap_line_to_lineERKNS_8RSLine2DES2_,
                            __ZN6rshape18make_vertical_lineERKDv2_fff,
                            __ZN6rshape19compute_max_overlapERKNS_8RSLine2DES2_,
                            __ZN6rshape19point2line_distanceERKDv2_fRKNS_8RSLine2DEf,
                            __ZN6rshape19surface3D_to_line2DEPK11RS3DSurface,
                            __ZN6rshape19surface3D_to_line3DEPK11RS3DSurface,
                            __ZN6rshape20get_corner_dist_listERKNS_8RSLine2DES2_RNSt3__16vectorIfNS3_9allocatorIfEEEE,
                            __ZN6rshape20make_horizontal_lineEfRKDv2_fS2_,
                            __ZN6rshape20map_point2line_innerERKDv2_fRKNS_8RSLine2DEf,
                            __ZN6rshape21closest_endpoints_idxERKNS_8RSLine2DES2_,
                            __ZN6rshape21compute_line_distanceERKNS_8RSLine2DES2_RNSt3__16vectorIfNS3_9allocatorIfEEEE,
                            __ZN6rshape21line2D_world_to_imageERKNS_8RSLine2DERKDv2_ffm,
                            __ZN6rshape21set_quad_with_2d_lineERKNS_8RSLine2DEP11RS3DSurface,
                            __ZN6rshape21set_quad_with_2d_lineERKNS_8RSLine2DEP11RS3DSurfaceff,
                            __ZN6rshape21split_wall_by_openingEP7NSArrayIP11RS3DSurfaceES4_,
                            __ZN6rshape22get_projected_wall_idsEP7NSArrayIP11RS3DSurfaceES2_,
                            __ZN6rshape22make_fake_opening_wallEPK11RSFloorPlanP14NSMutableArrayIP11RS3DSurfaceERNSt3__16vectorINS_20RS_Surface_RelataionENS8_9allocatorISA_EEEEffff,
                            __ZN6rshape22point2line_distance_v2ERKDv2_fRKNS_8RSLine2DE,
                            __ZN6rshape22voxelizePointCloudIn2DEPKDv3_fmmfRNSt3__16vectorIDv2_fNS3_9allocatorIS5_EEEE,
                            __ZN6rshape23avg_projection_distanceERKNS_8RSLine2DES2_,
                            __ZN6rshape23compute_angle_vector_90ERKDv2_fS2_,
                            __ZN6rshape23compute_occluded_statusERKDv2_fS2_RKNSt3__16vectorINS_8RSLine2DENS3_9allocatorIS5_EEEEf,
                            __ZN6rshape23compute_project_overlapERKNS_8RSLine2DES2_,
                            __ZN6rshape23is_inner_point_and_lineERKDv2_fRKNS_8RSLine2DEfb,
                            __ZN6rshape23snap_line_to_line_innerERKNS_8RSLine2DES2_,
                            __ZN6rshape24assignSurfacesIdentifierEP7NSArrayIP11RS3DSurfaceES4_,
                            __ZN6rshape24compute_seg_intersectionERKNS_8RSLine2DES2_,
                            __ZN6rshape24get_camera_normal_vectorERK13simd_float4x4RK13simd_float3x3ii,
                            __ZN6rshape24merge_two_parallel_linesERKNS_8RSLine2DES2_NS_15RS_Merge_MethodE,
                            __ZN6rshape25associate_opening_to_wallEPK11RSFloorPlanffff,
                            __ZN6rshape25compute_line_intersectionERKNS_8RSLine2DES2_,
                            __ZN6rshape25get_camera_normal_vectorsEPK13simd_float4x4mRK13simd_float3x3iiRNSt3__16vectorIDv3_fNS6_9allocatorIS8_EEEE,
                            __ZN6rshape25line_segment_intersect_v2ERKNS_8RSLine2DES2_f,
                            __ZN6rshape26get_line_segment_intersectERKNS_8RSLine2DES2_,
                            __ZN6rshape29compute_projection_percentageERKNS_8RSLine2DES2_,
                            __ZN6rshape29get_intersection_in_line_listERKNS_8RSLine2DES2_f,
                            __ZN6rshape30compute_angle_with_fixed_orderERKNS_8RSLine2DES2_,
                            __ZN6rshape32compute_projection_percentage_v2ERKNS_8RSLine2DES2_,
                            __ZN6rshape33get_corner2intersection_dist_listERKNS_8RSLine2DES2_,
                            __ZN6rshape36get_connection_line_of_cloest_pointsERKNS_8RSLine2DES2_,
                            __ZN6rshape5alignEP14NSMutableArrayIP11RS3DSurfaceES4_fff,
                            __ZN6rshape6lengthERKNS_8RSLine2DE,
                            __ZN6rshape8is_innerERKDv2_fS2_S2_fb,
                            __ZN7rs_asso23RSParentAssociationCore18_update_open_doorsERNSt3__16vectorIN5rs_ol17RS3DSurfaceOnlineENS1_9allocatorIS4_EEEERNS3_17RSFloorPlanOnlineE,
                            __ZN7rs_asso23RSParentAssociationCore19_merge_wall_openingERN5rs_ol17RSFloorPlanOnlineE,
                            __ZN7rs_asso23RSParentAssociationCore22_update_walls_childrenERNSt3__16vectorIN5rs_ol17RS3DSurfaceOnlineENS1_9allocatorIS4_EEEERNS3_17RSFloorPlanOnlineE,
                            __ZN7rs_asso23RSParentAssociationCore23_remove_opening_by_doorERN5rs_ol17RSFloorPlanOnlineE,
                            __ZN7rs_asso23RSParentAssociationCore24_parent_uuid_associationERN5rs_ol17RSFloorPlanOnlineE,
                            __ZN7rs_asso23RSParentAssociationCore27_remove_opendoor_by_openingERN5rs_ol17RSFloorPlanOnlineE,
                            __ZN7rs_asso23RSParentAssociationCore28_remove_opening_by_open_doorERN5rs_ol17RSFloorPlanOnlineE,
                            __ZN7rs_asso23RSParentAssociationCore7processEP11RSFloorPlanRN5rs_ol17RSFloorPlanOnlineEbbbb,
                            __ZN7rs_asso23RSParentAssociationCoreC1Ev,
                            __ZN7rs_asso23RSParentAssociationCoreC2Ev,
                            __ZN7rs_asso23RSParentAssociationCoreD0Ev,
                            __ZN7rs_asso23RSParentAssociationCoreD1Ev,
                            __ZN7rs_asso23RSParentAssociationCoreD2Ev,
                            __ZN7rs_asso30RSOnlineOfflineAssociationCore13_update_nodesERN5rs_ol17RSFloorPlanOnlineES3_15RS3DSurfaceTypeS4_PK14RSGeometryMetaRN2wt6TensorIDhLm3EEE,
                            __ZN7rs_asso30RSOnlineOfflineAssociationCore13_update_nodesERN5rs_ol17RSFloorPlanOnlineES3_15RS3DSurfaceTypeS4_PK14RSGeometryMetaRN2wt6TensorIfLm3EEE,
                            __ZN7rs_asso30RSOnlineOfflineAssociationCore18_change_child_uuidEP6NSUUIDS2_RNSt3__16vectorIN5rs_ol17RS3DSurfaceOnlineENS3_9allocatorIS6_EEEE,
                            __ZN7rs_asso30RSOnlineOfflineAssociationCore19_match_corner_orderERKN5rs_ol17RS3DSurfaceOnlineERS2_,
                            __ZN7rs_asso30RSOnlineOfflineAssociationCore20_assign_corner_orderERN5rs_ol17RS3DSurfaceOnlineEPK14RSGeometryMetaRN2wt6TensorIDhLm3EEE,
                            __ZN7rs_asso30RSOnlineOfflineAssociationCore20_assign_corner_orderERN5rs_ol17RS3DSurfaceOnlineEPK14RSGeometryMetaRN2wt6TensorIfLm3EEE,
                            __ZN7rs_asso30RSOnlineOfflineAssociationCore26_enforce_curved_wall_orderERN5rs_ol17RSFloorPlanOnlineE,
                            __ZN7rs_asso30RSOnlineOfflineAssociationCore28_inherit_parent_corner_orderERN5rs_ol17RS3DSurfaceOnlineERNS1_17RSFloorPlanOnlineE,
                            __ZN7rs_asso30RSOnlineOfflineAssociationCore47_split_offline_curved_wall_to_into_normal_wallsERN5rs_ol17RSFloorPlanOnlineEPK14RSGeometryMeta,
                            __ZN7rs_asso30RSOnlineOfflineAssociationCore7processERN5rs_ol17RSFloorPlanOnlineES3_PK14RSGeometryMetaRN2wt6TensorIDhLm3EEE,
                            __ZN7rs_asso30RSOnlineOfflineAssociationCore7processERN5rs_ol17RSFloorPlanOnlineES3_PK14RSGeometryMetaRN2wt6TensorIfLm3EEE,
                            __ZN7rs_asso30RSOnlineOfflineAssociationCoreC1Ev,
                            __ZN7rs_asso30RSOnlineOfflineAssociationCoreC2Ev,
                            __ZN7rs_asso30RSOnlineOfflineAssociationCoreD0Ev,
                            __ZN7rs_asso30RSOnlineOfflineAssociationCoreD1Ev,
                            __ZN7rs_asso30RSOnlineOfflineAssociationCoreD2Ev,
                            __ZN7wlw_olp19MergerForDoorWindow11clearMergerEv,
                            __ZN7wlw_olp19MergerForDoorWindow11mergePlanesEP11RS3DSurfaceS2_RN6rshape13RS_Match_InfoE,
                            __ZN7wlw_olp19MergerForDoorWindow11wrapResultsEP7NSArrayIP11RS3DSurfaceE,
                            __ZN7wlw_olp19MergerForDoorWindow19projectToParentWallEP11RS3DSurfaceS2_,
                            __ZN7wlw_olp19MergerForDoorWindow23computeMappingAndUpdateEv,
                            __ZN7wlw_olp19MergerForDoorWindow24reprojectToWallsOpeningsEv,
                            __ZN7wlw_olp19MergerForDoorWindow34mergeInstancesOnInferWallsOpeningsEv,
                            __ZN7wlw_olp19MergerForDoorWindow37separateInstancesByInferWallsOpeningsEv,
                            __ZN7wlw_olp19MergerForDoorWindow5mergeEP14NSMutableArrayIP11RS3DSurfaceEP7NSArrayIS3_ES8_,
                            __ZN7wlw_olp19MergerForDoorWindow9skipMergeEv,
                            __ZN7wlw_olp19MergerForDoorWindowC1Ev,
                            __ZN7wlw_olp19MergerForDoorWindowC2Ev,
                            __ZN7wlw_olp19MergerForDoorWindowD0Ev,
                            __ZN7wlw_olp19MergerForDoorWindowD1Ev,
                            __ZN7wlw_olp19MergerForDoorWindowD2Ev,
                            __ZN7wlw_olp32WallOpeningSelectorForDoorWindow11wrapResultsEP7NSArrayIP11RS3DSurfaceEPKDv3_fm,
                            __ZN7wlw_olp32WallOpeningSelectorForDoorWindow13clearSelectorEv,
                            __ZN7wlw_olp32WallOpeningSelectorForDoorWindow14updateSelectorEP7NSArrayIP11RS3DSurfaceEPU21objcproto10RSKeyframe11objc_objectPKDv3_fm,
                            __ZN7wlw_olp32WallOpeningSelectorForDoorWindow16computeViewAngleEP11RS3DSurfaceDv3_f,
                            __ZN7wlw_olp32WallOpeningSelectorForDoorWindow21rankInferWallOpeningsEv,
                            __ZN7wlw_olp32WallOpeningSelectorForDoorWindow22computeCameraDirectionERK13simd_float4x4,
                            __ZN7wlw_olp32WallOpeningSelectorForDoorWindow23updateInferWallOpeningsEv,
                            __ZN7wlw_olp32WallOpeningSelectorForDoorWindow31checkCurrentKeyframeFeasibilityEv,
                            __ZN7wlw_olp32WallOpeningSelectorForDoorWindow34generateMappingAndUpdateVisibilityEv,
                            __ZN7wlw_olp32WallOpeningSelectorForDoorWindowC1Ev,
                            __ZN7wlw_olp32WallOpeningSelectorForDoorWindowC2Ev,
                            __ZN7wlw_olp32WallOpeningSelectorForDoorWindowD0Ev,
                            __ZN7wlw_olp32WallOpeningSelectorForDoorWindowD1Ev,
                            __ZN7wlw_olp32WallOpeningSelectorForDoorWindowD2Ev,
                            __ZN8lcnn_spp10SmallLoops15_is_valid_cycleERKNS_5GraphIfNS_7Point2DIfEENS_4LineEEERKNSt3__14spanIKiLm3EEEf,
                            __ZN8lcnn_spp10SmallLoops18_process_one_cycleERNS_5SceneERKNS_5GraphIfNS_7Point2DIfEENS_4LineEEERKNSt3__14spanIKiLm3EEERKNSA_13unordered_setIiNSA_4hashIiEENSA_8equal_toIiEENSA_9allocatorIiEEEE,
                            __ZN8lcnn_spp10SmallLoops26_create_intersection_graphERKNS_5SceneEf,
                            __ZN8lcnn_spp10SmallLoops7processERNS_5SceneE,
                            __ZN8lcnn_spp12AlignOpening13is_valid_juncERKNS_12JuncNodeAttrERKNS_5SceneE,
                            __ZN8lcnn_spp12AlignOpening16_find_neighboursERKNS_5SceneEif,
                            __ZN8lcnn_spp12AlignOpening19get_valid_junc_dictERKNS_5SceneE,
                            __ZN8lcnn_spp12AlignOpening24_find_connected_big_wallERKNS_5SceneERKNS_4LineERKNS_12JuncNodeAttrE,
                            __ZN8lcnn_spp12AlignOpening25_process_attached_openingERKNS_4LineERNS_5SceneE,
                            __ZN8lcnn_spp12AlignOpening27_process_unattached_openingERKNS_4LineERNS_5SceneE,
                            __ZN8lcnn_spp12AlignOpening7processERNS_5SceneE,
                            __ZN8lcnn_spp14RemoveOutliers13_is_duplicateERKNS_4LineERKNSt3__14spanIS2_Lm18446744073709551615EEEff,
                            __ZN8lcnn_spp14RemoveOutliers15_find_proposalsERNS_5SceneE,
                            __ZN8lcnn_spp14RemoveOutliers15process_objectsERNS_5SceneERKNSt3__14spanIKN4simd8float4x4ELm18446744073709551615EEERKNS3_6vectorINS_4LineENS3_9allocatorISC_EEEERNSB_ImNSD_ImEEEE,
                            __ZN8lcnn_spp14RemoveOutliers16_compute_bearingERKN4simd8float4x4Ef,
                            __ZN8lcnn_spp14RemoveOutliers16_delete_outliersERNS_5SceneERKNSt3__14spanIKiLm18446744073709551615EEE,
                            __ZN8lcnn_spp14RemoveOutliers16_not_in_frustrumERKNS_5SceneERKNSt3__14spanIKDv4_fLm18446744073709551615EEERKNS5_IKNS_4LineELm18446744073709551615EEE,
                            __ZN8lcnn_spp14RemoveOutliers17_compute_bearingsERKNSt3__14spanIKN4simd8float4x4ELm18446744073709551615EEEm,
                            __ZN8lcnn_spp14RemoveOutliers18_overlaps_with_anyERKNSt3__18optionalINS1_17reference_wrapperIKNS_5SceneEEEEERKNS_4LineERKNS1_4spanISB_Lm18446744073709551615EEEff,
                            __ZN8lcnn_spp14RemoveOutliers19_count_border_linesERKNSt3__113unordered_setIiNS1_4hashIiEENS1_8equal_toIiEENS1_9allocatorIiEEEERKNS_5GraphIfNS_4LineENS_12LineRelationEEESH_,
                            __ZN8lcnn_spp14RemoveOutliers20_intersects_with_anyERKNS_4LineERKNS_5SceneEi,
                            __ZN8lcnn_spp14RemoveOutliers23_object_not_in_frustrumERKNS_5SceneERKNSt3__14spanIKDv4_fLm18446744073709551615EEERKNS5_IKNS_4LineELm18446744073709551615EEERKNS4_6vectorISB_NS4_9allocatorISB_EEEE,
                            __ZN8lcnn_spp14RemoveOutliers24_find_suitable_endpointsERNS_5SceneE,
                            __ZN8lcnn_spp14RemoveOutliers27_intersects_with_any_insideERKNS_4LineERKNSt3__14spanIS2_Lm18446744073709551615EEERKNS4_8optionalIiEESC_b,
                            __ZN8lcnn_spp14RemoveOutliers28_compute_bearings_for_objectERKNSt3__14spanIKN4simd8float4x4ELm18446744073709551615EEEm,
                            __ZN8lcnn_spp14RemoveOutliers28_filter_outlier_connectivityERKNS_5SceneERKNSt3__14spanIKiLm18446744073709551615EEE,
                            __ZN8lcnn_spp14RemoveOutliers29_split_walls_at_intersectionsERNS_5SceneE,
                            __ZN8lcnn_spp14RemoveOutliers31_filter_outlier_connectivity_v2ERKNS_5SceneERKNSt3__14spanIKiLm18446744073709551615EEE,
                            __ZN8lcnn_spp14RemoveOutliers7processERNS_5SceneERKNSt3__14spanIKN4simd8float4x4ELm18446744073709551615EEE,
                            __ZN8lcnn_spp16OverSegmentation7processERNS_5SceneE,
                            __ZN8lcnn_spp16OverSegmentation8_processERNS_5SceneERKNS_12LineRelationE,
                            __ZN8lcnn_spp16OverlapDetection29_process_wall_opening_overlapERNS_5SceneERKNS_4LineES5_,
                            __ZN8lcnn_spp16OverlapDetection7processERNS_5SceneE,
                            __ZN8lcnn_spp17ExtendLinesMirror13_is_duplicateERKNS_4LineERNSt3__16vectorIS1_NS4_9allocatorIS1_EEEEff,
                            __ZN8lcnn_spp17ExtendLinesMirror13_update_sceneERNS_5SceneERKNSt3__16vectorINS_4LineENS3_9allocatorIS5_EEEE,
                            __ZN8lcnn_spp17ExtendLinesMirror17_filter_proposalsERKNSt3__16vectorINS_4LineENS1_9allocatorIS3_EEEERKNS2_INS2_INS_7Point2DIfEENS4_ISA_EEEENS4_ISC_EEEERS6_,
                            __ZN8lcnn_spp17ExtendLinesMirror22compute_mirror_supportERKNSt3__16vectorINS_4LineENS1_9allocatorIS3_EEEERKN2wt6TensorIfLm3EEERNS2_INS2_INS_7Point2DIfEENS4_ISF_EEEENS4_ISH_EEEE,
                            __ZN8lcnn_spp17ExtendLinesMirror24_find_suitable_endpointsERNS_5SceneE,
                            __ZN8lcnn_spp17ExtendLinesMirror26_delete_opening_fp_mirrorsERKNSt3__16vectorINS_4LineENS1_9allocatorIS3_EEEERNS_5SceneE,
                            __ZN8lcnn_spp17ExtendLinesMirror7processERNS_5SceneERKN2wt6TensorIfLm3EEE,
                            __ZN8lcnn_spp18OnlineOfflineMerge11_find_matchERKNS_5SceneERKNS_4LineENS_8CATEGORYE,
                            __ZN8lcnn_spp18OnlineOfflineMerge14_is_valid_juncERKNS_7Point2DIfEERKNS_5SceneE,
                            __ZN8lcnn_spp18OnlineOfflineMerge18_is_confident_juncERKNS_7Point2DIfEERKNSt3__14spanIKNS_4LineELm18446744073709551615EEE,
                            __ZN8lcnn_spp18OnlineOfflineMerge25_is_confident_online_lineERKNS_4LineERKNSt3__14spanIS2_Lm18446744073709551615EEE,
                            __ZN8lcnn_spp18OnlineOfflineMerge26_find_matched_shorter_lineERKNS_5SceneERKNS_4LineENS_8CATEGORYE,
                            __ZN8lcnn_spp18OnlineOfflineMerge27_find_attached_line_relaxedERKNS_4LineERKNS_7Point2DIfEERKNS_5SceneE,
                            __ZN8lcnn_spp18OnlineOfflineMerge7processERNS_5SceneERKNSt3__18optionalIN2wt6TensorIfLm3EEEEESA_,
                            __ZN8lcnn_spp18OnlineOfflineMerge8_processERNS_5SceneERKNS_4LineERKNSt3__14spanIS4_Lm18446744073709551615EEE,
                            __ZN8lcnn_spp21StickoutWallWithDepth7processERNS_5SceneE,
                            __ZN8lcnn_spp21StickoutWallWithDepth8_processERNS_5SceneERKNS_12LineRelationE,
                            __ZN8lcnn_spp32FloorToCeilingFurnitureDetection11_find_matchERKNSt3__14spanIKNS_4LineELm18446744073709551615EEERS4_,
                            __ZN8lcnn_spp32FloorToCeilingFurnitureDetection12_find_normalERKNS_4LineERKNSt3__14spanIKDv3_fLm18446744073709551615EEESA_,
                            __ZN8lcnn_spp32FloorToCeilingFurnitureDetection14_is_valid_juncERKNS_4LineERKNS_7Point2DIfEERKNS_5SceneERKNSt3__14spanIS2_Lm18446744073709551615EEE,
                            __ZN8lcnn_spp32FloorToCeilingFurnitureDetection15_is_line_in_boxERKNS_4LineES3_RKDv2_ff,
                            __ZN8lcnn_spp32FloorToCeilingFurnitureDetection16_is_point_in_boxERKNS_7Point2DIfEERKNS_4LineERKDv2_fff,
                            __ZN8lcnn_spp32FloorToCeilingFurnitureDetection17_is_valid_junc_v2ERKNS_7Point2DIfEERKNS_5SceneE,
                            __ZN8lcnn_spp32FloorToCeilingFurnitureDetection18_filter_by_overlapERKNS_5SceneERKNSt3__14spanIKNS_4LineELm18446744073709551615EEE,
                            __ZN8lcnn_spp32FloorToCeilingFurnitureDetection19_is_valid_wall_lineERKNS_4LineERKNS_5SceneE,
                            __ZN8lcnn_spp32FloorToCeilingFurnitureDetection20_filter_by_endpointsERKNS_5SceneERKNSt3__14spanIKNS_4LineELm18446744073709551615EEE,
                            __ZN8lcnn_spp32FloorToCeilingFurnitureDetection20_is_oversegmentationERKNS_4LineES3_fff,
                            __ZN8lcnn_spp32FloorToCeilingFurnitureDetection22_filter_by_wall_behindERKNS_5SceneERKNSt3__14spanIKNS_4LineELm18446744073709551615EEERKNS5_IKDv3_fLm18446744073709551615EEESF_,
                            __ZN8lcnn_spp32FloorToCeilingFurnitureDetection23_merge_oversegmentationERKNSt3__14spanIKNS_4LineELm18446744073709551615EEE,
                            __ZN8lcnn_spp32FloorToCeilingFurnitureDetection25_is_wall_floor_to_ceilingERKNS_4LineERKNSt3__14spanIKDv3_fLm18446744073709551615EEEf,
                            __ZN8lcnn_spp32FloorToCeilingFurnitureDetection27_filter_by_floor_to_ceilingERKNSt3__14spanIKNS_4LineELm18446744073709551615EEERKNS2_IKDv3_fLm18446744073709551615EEEf,
                            __ZN8lcnn_spp32FloorToCeilingFurnitureDetection7processERNS_5SceneERKNSt3__14spanIKDv3_fLm18446744073709551615EEERKNS4_IKNS4_IKfLm26EEELm18446744073709551615EEES9_,
                            __ZN8roomscan13numCategoriesEm,
                            __ZN8roomscan16mapSemanticsToV3ENS_15SemanticLabelv4E,
                            __ZN8roomscan16mapSemanticsToV3ENS_15SemanticLabelv5E,
                            __ZN8roomscan16mapSemanticsToV3Ehm,
                            __ZN8roomscan20mapSemanticsToV3PlusENS_15SemanticLabelv5E,
                            __ZN8roomscan20mapSemanticsToV3PlusEhm,
                            __ZN8roomscan26mapSemanticsToCompressedV5ENS_15SemanticLabelv5E,
                            __ZN9UnionFind4findEi, __ZN9UnionFind4rootEi,
                            __ZN9UnionFind5uniteEii, __ZN9UnionFind8validateEi,
                            __ZN9UnionFindC1Ei, __ZN9UnionFindC2Ei,
                            __ZN9rs_oalign22OpeningHeightAlignment12check_mirrorEPK11RS3DSurfacePK12RSPointCloudPK14RSTemporalMeta,
                            __ZN9rs_oalign22OpeningHeightAlignment13check_in_viewERK15RS3DSurfaceQuadRK13simd_float4x4RK13simd_float3x3iifi,
                            __ZN9rs_oalign22OpeningHeightAlignment14filter_openingEP11RSFloorPlan,
                            __ZN9rs_oalign22OpeningHeightAlignment15get_floor_valueEPK11RSFloorPlan,
                            __ZN9rs_oalign22OpeningHeightAlignment16get_valid_heightERKNSt3__16vectorINS_19HeightStatisticInfoENS1_9allocatorIS3_EEEEff,
                            __ZN9rs_oalign22OpeningHeightAlignment21get_height_from_otherEv,
                            __ZN9rs_oalign22OpeningHeightAlignment21update_opening_heightENS_19OpeningHeightStructEPK11RS3DSurface,
                            __ZN9rs_oalign22OpeningHeightAlignment23detect_half_height_wallEPK11RSFloorPlanPK12RSPointCloudPK14RSTemporalMeta,
                            __ZN9rs_oalign22OpeningHeightAlignment23get_points_near_openingERNSt3__16vectorIDv3_fNS1_9allocatorIS3_EEEERK15RS3DSurfaceQuadPK12RSPointCloudPK14RSTemporalMetafi,
                            __ZN9rs_oalign22OpeningHeightAlignment24check_parent_wall_heightEPK11RS3DSurfacePK11RSFloorPlan,
                            __ZN9rs_oalign22OpeningHeightAlignment26fine_tune_line_with_pointsERK15RS3DSurfaceQuadRKNSt3__16vectorIDv3_fNS4_9allocatorIS6_EEEEf,
                            __ZN9rs_oalign22OpeningHeightAlignment5clearEv,
                            __ZN9rs_oalign22OpeningHeightAlignment7processEPK11RSFloorPlanPK12RSPointCloudPK14RSTemporalMeta,
                            __ZN9rs_oalign22OpeningHeightAlignmentC1Eb,
                            __ZN9rs_oalign22OpeningHeightAlignmentC2Eb,
                            __ZN9rs_oalign22OpeningHeightAlignmentD0Ev,
                            __ZN9rs_oalign22OpeningHeightAlignmentD1Ev,
                            __ZN9rs_oalign22OpeningHeightAlignmentD2Ev,
                            __ZNK10PointsLine19check_ceiling_stateEv,
                            __ZNK10PointsLine21check_one_wall_stableEv,
                            __ZNK10PointsLine21reverse_line_segmentsEv,
                            __ZNK5rs_ol11ImageCircle14check_validityERKNS_20ONLINE_CURVED_CONFIGEPK14RSGeometryMeta,
                            __ZNK5rs_ol11ImageCircle14get_end_pointsEv,
                            __ZNK5rs_ol11ImageCircle17check_orientationEv,
                            __ZNK5rs_ol11RSStructure14get_all_pointsEv,
                            __ZNK5rs_ol11RSStructure14get_end_pointsEv,
                            __ZNK5rs_ol8RSCircle11get_line_2dEv,
                            __ZNK5rs_ol8RSCircle12is_in_circleERKDv3_ff,
                            __ZNK5rs_ol8RSCircle14get_end_pointsEv,
                            __ZNK5rs_ol8RSCircle15get_convex_hullEf,
                            __ZNK5rs_ol8RSCircle17check_orientationEv,
                            __ZNK5rs_ol8RSCircle17get_curved_lengthEv,
                            __ZNK5rs_ol8RSCircle17get_line_segmentsEfi,
                            __ZNK5rs_ol8RSCircle18find_ori_in_circleERKDv3_f,
                            __ZNK5rs_ol8RSCircle20find_angle_in_circleERKDv3_f,
                            __ZNK5rs_ol8RSCircle20find_point_in_circleERKDv3_ff,
                            __ZNK5rs_ol8RSCircle8get_lineEv,
                            __ZNK6rs_erf13EdgeProjector13rotate_with_wERKN6rshape8RSLine2DEif,
                            __ZNK6rs_erf13EdgeProjector19rotate_point_with_wERKDv2_fif,
                            __ZNK6rs_erf13EdgeProjector21cut_image_line_in_boxERKN6rshape8RSLine2DEii,
                            __ZNK6rs_erf13EdgeProjector24world_line_to_image_lineERKN6rshape8RSLine3DERK13simd_float4x4RK13simd_float3x3b,
                            __ZNK6rs_erf13EdgeProjector25_world_line_to_image_lineERKN6rshape8RSLine3DERK13simd_float4x4RK13simd_float3x3,
                            __ZNK6rs_erf13EdgeProjector28world_points_to_image_pointsERKNSt3__16vectorIDv3_fNS1_9allocatorIS3_EEEERK13simd_float4x4RK13simd_float3x3,
                            __ZNK6rs_erf13EdgeProjector33project_world_pts_to_camera_imageERKNSt3__16vectorIDv3_fNS1_9allocatorIS3_EEEERK13simd_float4x4RK13simd_float3x3,
                            __ZNK6rs_erf14EdgeRefineNode15get_image_deltaEfi,
                            __ZNK6rs_erf14EdgeRefineNode20compute_camera_angleEv,
                            __ZNK6rs_erf14EdgeRefineNode21get_adjusted_endpointEfi,
                            __ZNK6rs_erf14EdgeRefineNode22compute_vline_distanceEi,
                            __ZNK6rs_erf14EdgeRefineNode24get_adjusted_hline_imageEf,
                            __ZNK6rs_erf14EdgeRefineNode24get_adjusted_vline_imageEfi,
                            __ZNK6rs_erf14EdgeRefineNode26get_image_delta_horizontalEf,
                            __ZNK6rs_erf14EdgeRefineNode36get_adjusted_hline_image_door_windowEfi,
                            __ZNK6rs_erf14EdgeRefineNode38get_image_delta_horizontal_door_windowEfi,
                            __ZNK8lcnn_spp12AlignOpening23find_nearest_valid_juncEiRKNS_5SceneE,
                            __ZTI10TracingMap, __ZTI13StatisticDict,
                            __ZTI17MetalCannyEdgeRGB, __ZTI18MetalCannyEdgeBase,
                            __ZTI22MetalCannyEdgeSemantic,
                            __ZTIN15marker_proposal14MarkerProposalE,
                            __ZTIN18rs_drift_detection20RSDriftDetectionCoreE,
                            __ZTIN3wlw22IEspresso_Interface_v1E,
                            __ZTIN3wlw8Lcnn_FC2E,
                            __ZTIN3wlw8lcnn_flp20Unet_fpn_backbone_v1E,
                            __ZTIN3wlw8lcnn_flp20Unet_fpn_backbone_v2E,
                            __ZTIN3wlw8lcnn_flp23Lcnn_floorplan_detectorE,
                            __ZTIN5rs_ol11RSStructureE,
                            __ZTIN5rs_ol16RSStructureGraphE,
                            __ZTIN5rs_ol22RSLocalStandardizationE,
                            __ZTIN6rs_ddp32RSDeduplicateOpeningOpenDoorCoreE,
                            __ZTIN7rs_asso23RSParentAssociationCoreE,
                            __ZTIN7rs_asso30RSOnlineOfflineAssociationCoreE,
                            __ZTIN7wlw_olp19MergerForDoorWindowE,
                            __ZTIN7wlw_olp32WallOpeningSelectorForDoorWindowE,
                            __ZTIN9rs_oalign22OpeningHeightAlignmentE,
                            __ZTS10TracingMap, __ZTS13StatisticDict,
                            __ZTS17MetalCannyEdgeRGB, __ZTS18MetalCannyEdgeBase,
                            __ZTS22MetalCannyEdgeSemantic,
                            __ZTSN15marker_proposal14MarkerProposalE,
                            __ZTSN18rs_drift_detection20RSDriftDetectionCoreE,
                            __ZTSN3wlw22IEspresso_Interface_v1E,
                            __ZTSN3wlw8Lcnn_FC2E,
                            __ZTSN3wlw8lcnn_flp20Unet_fpn_backbone_v1E,
                            __ZTSN3wlw8lcnn_flp20Unet_fpn_backbone_v2E,
                            __ZTSN3wlw8lcnn_flp23Lcnn_floorplan_detectorE,
                            __ZTSN5rs_ol11RSStructureE,
                            __ZTSN5rs_ol16RSStructureGraphE,
                            __ZTSN5rs_ol22RSLocalStandardizationE,
                            __ZTSN6rs_ddp32RSDeduplicateOpeningOpenDoorCoreE,
                            __ZTSN7rs_asso23RSParentAssociationCoreE,
                            __ZTSN7rs_asso30RSOnlineOfflineAssociationCoreE,
                            __ZTSN7wlw_olp19MergerForDoorWindowE,
                            __ZTSN7wlw_olp32WallOpeningSelectorForDoorWindowE,
                            __ZTSN9rs_oalign22OpeningHeightAlignmentE,
                            __ZTV10TracingMap, __ZTV13StatisticDict,
                            __ZTV17MetalCannyEdgeRGB, __ZTV18MetalCannyEdgeBase,
                            __ZTV22MetalCannyEdgeSemantic,
                            __ZTVN15marker_proposal14MarkerProposalE,
                            __ZTVN18rs_drift_detection20RSDriftDetectionCoreE,
                            __ZTVN3wlw22IEspresso_Interface_v1E,
                            __ZTVN3wlw8Lcnn_FC2E,
                            __ZTVN3wlw8lcnn_flp20Unet_fpn_backbone_v1E,
                            __ZTVN3wlw8lcnn_flp20Unet_fpn_backbone_v2E,
                            __ZTVN3wlw8lcnn_flp23Lcnn_floorplan_detectorE,
                            __ZTVN5rs_ol11RSStructureE,
                            __ZTVN5rs_ol16RSStructureGraphE,
                            __ZTVN5rs_ol22RSLocalStandardizationE,
                            __ZTVN6rs_ddp32RSDeduplicateOpeningOpenDoorCoreE,
                            __ZTVN7rs_asso23RSParentAssociationCoreE,
                            __ZTVN7rs_asso30RSOnlineOfflineAssociationCoreE,
                            __ZTVN7wlw_olp19MergerForDoorWindowE,
                            __ZTVN7wlw_olp32WallOpeningSelectorForDoorWindowE,
                            __ZTVN9rs_oalign22OpeningHeightAlignmentE,
                            _kRSFloorPlanCurvedWallsKey, _kRSFloorPlanDoorsKey,
                            _kRSFloorPlanObjectsKey, _kRSFloorPlanOpenDoorsKey,
                            _kRSFloorPlanOpeningsKey, _kRSFloorPlanWallsKey,
                            _kRSFloorPlanWindowsKey ]
    objc-classes:         [ RS3DCurvedSurface, RS3DMarker, RS3DObject,
                            RS3DObjectMerger, RS3DSurface, RSAsset,
                            RSBayWindowFPRemoval, RSBox3dSerialization,
                            RSCaptureConfiguration, RSCaptureSession,
                            RSCurvedWallDetection, RSDeduplicateOpeningOpenDoor,
                            RSDoorWindowOfflineDetector,
                            RSDoorWindowOnlineDetector,
                            RSDoorWindowPostProcessor, RSDriftDetection,
                            RSDriftDetectionSignal, RSFloorPlan,
                            RSFloorPlanBoundaryRefinement,
                            RSFloorPlanGeneratorBase, RSFloorPlanRender,
                            RSGenerationConfiguration, RSGenerationSession,
                            RSGeometryCalculation, RSGeometryMeta, RSGroupEdge,
                            RSInternalInfoDumper, RSKeyframeAccumulation,
                            RSKeyframeExtended, RSKeyframeHeightBlob,
                            RSKeyframeMeta, RSKeyframeMetaExtend, RSMajorViewInfo,
                            RSMarkerCoaching, RSMarkerSignal, RSMirrorDetection,
                            RSMirrorPoint, RSNode, RSNodeConnection,
                            RSNodeEventMessage, RSNodeInput, RSNodeMessage,
                            RSNodeOutput, RSNodeSampleMessage,
                            RSNonUniformHeightEstimation, RSObjectAlign,
                            RSObjectAsset, RSOfflineFloorPlanGenerator,
                            RSOfflineGeometryCalculation,
                            RSOfflineKeyframeAccumulation,
                            RSOfflineProjection2DZNode, RSOnlineCurvedWallFusion,
                            RSOnlineFloorPlanGenerator,
                            RSOnlineOfflineAssociation, RSOpeningHeightAlignment,
                            RSOrthographicDetector, RSOutsideObjectRemoval,
                            RSParentAssociation, RSPointCloud,
                            RSPointCloudColorEstimator, RSProjection2DZ,
                            RSRecessedArea, RSRecessedAreaReconstructor,
                            RSScanCoaching, RSScanUIFormatter, RSSemanticImage,
                            RSSinkNode, RSSourceNode, RSStructurePostProcess,
                            RSSubPointsLUT, RSTemporalMeta, RSTextCoachingSignal,
                            RSWallOpeningOfflineDetector,
                            RSWallOpeningOnlineDetector,
                            RSWallOpeningOnlineOptimizer, RoomScanPython,
                            _RSCamera, _RSFrame, _RSOrthographicDetector_DetectBox,
                            _RSRawPointCloud ]
    objc-ivars:           [ RSFloorPlanGeneratorBase._inputSemanticsVersion,
                            RSFloorPlanGeneratorBase._isDoorWindowEnabled ]
    weak-def-symbols:     [ __ZTIN2wt6TensorIbLm1EEE, __ZTIN2wt6TensorIbLm2EEE,
                            __ZTIN2wt6TensorIbLm3EEE, __ZTIN2wt6TensorIfLm1EEE,
                            __ZTIN2wt6TensorIfLm2EEE, __ZTIN2wt6TensorIfLm3EEE,
                            __ZTIN2wt6TensorIhLm1EEE, __ZTIN2wt6TensorIhLm2EEE,
                            __ZTIN2wt6TensorIhLm3EEE, __ZTIN2wt6TensorIiLm1EEE,
                            __ZTIN2wt6TensorIiLm2EEE, __ZTIN2wt6TensorIiLm3EEE,
                            __ZTIN2wt6TensorIjLm2EEE, __ZTIN2wt6TensorIjLm3EEE,
                            __ZTIN2wt6TensorImLm1EEE, __ZTIN2wt6TensorImLm2EEE,
                            __ZTIN2wt7ExpBaseINS_6TensorIbLm1EEEEE,
                            __ZTIN2wt7ExpBaseINS_6TensorIbLm2EEEEE,
                            __ZTIN2wt7ExpBaseINS_6TensorIbLm3EEEEE,
                            __ZTIN2wt7ExpBaseINS_6TensorIfLm1EEEEE,
                            __ZTIN2wt7ExpBaseINS_6TensorIfLm2EEEEE,
                            __ZTIN2wt7ExpBaseINS_6TensorIfLm3EEEEE,
                            __ZTIN2wt7ExpBaseINS_6TensorIhLm1EEEEE,
                            __ZTIN2wt7ExpBaseINS_6TensorIhLm2EEEEE,
                            __ZTIN2wt7ExpBaseINS_6TensorIhLm3EEEEE,
                            __ZTIN2wt7ExpBaseINS_6TensorIiLm1EEEEE,
                            __ZTIN2wt7ExpBaseINS_6TensorIiLm2EEEEE,
                            __ZTIN2wt7ExpBaseINS_6TensorIiLm3EEEEE,
                            __ZTIN2wt7ExpBaseINS_6TensorIjLm2EEEEE,
                            __ZTIN2wt7ExpBaseINS_6TensorIjLm3EEEEE,
                            __ZTIN2wt7ExpBaseINS_6TensorImLm1EEEEE,
                            __ZTIN2wt7ExpBaseINS_6TensorImLm2EEEEE,
                            __ZTIN3wlw22IEspresso_Interface_v2E,
                            __ZTIN3wlw8lcnn_flp16StandardFunctionE,
                            __ZTIN4wopt12LbfgsbSolverIN3wlw8lcnn_flp16StandardFunctionEEE,
                            __ZTIN4wopt14BoundedProblemIdEE,
                            __ZTIN4wopt7ISolverIN3wlw8lcnn_flp16StandardFunctionELi1EEE,
                            __ZTIN4wopt7ProblemIdEE, __ZTIN5rs_ol11ImageCircleE,
                            __ZTIN5rs_ol14RSOnlineFusionE,
                            __ZTIN5rs_ol17RS3DSurfaceOnlineE,
                            __ZTIN5rs_ol17RSFloorPlanOnlineE,
                            __ZTIN5rs_ol17RSZShapeStructureE,
                            __ZTIN5rs_ol18RSOnlineRefinementE,
                            __ZTIN5rs_ol21RSCurvedSurfaceOnlineE,
                            __ZTIN5rs_ol23RSTmOnlineTMScoreHelperE,
                            __ZTIN5rs_ol8RSCircleE,
                            __ZTIN6rs_erf13EdgeProjectorE,
                            __ZTIN6rs_erf14EdgeRefineNodeE,
                            __ZTIN6rs_erf25SingleFrameEdgeRefinementE,
                            __ZTIN6rshape8RSLine2DE, __ZTIN6rshape8RSLine3DE,
                            __ZTINSt3__110__back_refIcEE,
                            __ZTINSt3__110__function6__baseIFbRKN8lcnn_spp14UndirectedEdgeEEEE,
                            __ZTINSt3__110__function6__baseIFbRKNS_13unordered_setIiNS_4hashIiEENS_8equal_toIiEENS_9allocatorIiEEEEEEE,
                            __ZTINSt3__110__function6__baseIFbRKNS_4spanIKiLm18446744073709551615EEEEEE,
                            __ZTINSt3__110__function6__baseIFbffEEE,
                            __ZTINSt3__110__function6__funcINS_4lessIfEENS_9allocatorIS3_EEFbffEEE,
                            __ZTINSt3__111__alternateIcEE,
                            __ZTINSt3__111__end_stateIcEE,
                            __ZTINSt3__111__lookaheadIcNS_12regex_traitsIcEEEE,
                            __ZTINSt3__111__match_anyIcEE,
                            __ZTINSt3__112__match_charIcEE,
                            __ZTINSt3__113__empty_stateIcEE,
                            __ZTINSt3__115__has_one_stateIcEE,
                            __ZTINSt3__115__word_boundaryIcNS_12regex_traitsIcEEEE,
                            __ZTINSt3__115binary_functionIffbEE,
                            __ZTINSt3__116__back_ref_icaseIcNS_12regex_traitsIcEEEE,
                            __ZTINSt3__116__owns_one_stateIcEE,
                            __ZTINSt3__117__owns_two_statesIcEE,
                            __ZTINSt3__117__repeat_one_loopIcEE,
                            __ZTINSt3__117bad_function_callE,
                            __ZTINSt3__118__back_ref_collateIcNS_12regex_traitsIcEEEE,
                            __ZTINSt3__118__match_char_icaseIcNS_12regex_traitsIcEEEE,
                            __ZTINSt3__120__bracket_expressionIcNS_12regex_traitsIcEEEE,
                            __ZTINSt3__120__l_anchor_multilineIcEE,
                            __ZTINSt3__120__match_char_collateIcNS_12regex_traitsIcEEEE,
                            __ZTINSt3__120__r_anchor_multilineIcEE,
                            __ZTINSt3__120__shared_ptr_emplaceIN2wt7StorageIbEENS_9allocatorIS3_EEEE,
                            __ZTINSt3__120__shared_ptr_emplaceIN2wt7StorageIfEENS_9allocatorIS3_EEEE,
                            __ZTINSt3__120__shared_ptr_emplaceIN2wt7StorageIhEENS_9allocatorIS3_EEEE,
                            __ZTINSt3__120__shared_ptr_emplaceIN2wt7StorageIiEENS_9allocatorIS3_EEEE,
                            __ZTINSt3__120__shared_ptr_emplaceIN2wt7StorageIjEENS_9allocatorIS3_EEEE,
                            __ZTINSt3__120__shared_ptr_emplaceIN2wt7StorageImEENS_9allocatorIS3_EEEE,
                            __ZTINSt3__120__shared_ptr_pointerIPNS_13__empty_stateIcEENS_10shared_ptrIS2_E27__shared_ptr_default_deleteIS2_S2_EENS_9allocatorIS2_EEEE,
                            __ZTINSt3__120__shared_ptr_pointerIPNS_6vectorIcNS_9allocatorIcEEEENS_10shared_ptrIS4_E27__shared_ptr_default_deleteIS4_S4_EENS2_IS4_EEEE,
                            __ZTINSt3__121__empty_non_own_stateIcEE,
                            __ZTINSt3__123__match_any_but_newlineIcEE,
                            __ZTINSt3__126__end_marked_subexpressionIcEE,
                            __ZTINSt3__128__begin_marked_subexpressionIcEE,
                            __ZTINSt3__14lessIfEE, __ZTINSt3__16__loopIcEE,
                            __ZTINSt3__16__nodeIcEE, __ZTSN2wt6TensorIbLm1EEE,
                            __ZTSN2wt6TensorIbLm2EEE, __ZTSN2wt6TensorIbLm3EEE,
                            __ZTSN2wt6TensorIfLm1EEE, __ZTSN2wt6TensorIfLm2EEE,
                            __ZTSN2wt6TensorIfLm3EEE, __ZTSN2wt6TensorIhLm1EEE,
                            __ZTSN2wt6TensorIhLm2EEE, __ZTSN2wt6TensorIhLm3EEE,
                            __ZTSN2wt6TensorIiLm1EEE, __ZTSN2wt6TensorIiLm2EEE,
                            __ZTSN2wt6TensorIiLm3EEE, __ZTSN2wt6TensorIjLm2EEE,
                            __ZTSN2wt6TensorIjLm3EEE, __ZTSN2wt6TensorImLm1EEE,
                            __ZTSN2wt6TensorImLm2EEE,
                            __ZTSN2wt7ExpBaseINS_6TensorIbLm1EEEEE,
                            __ZTSN2wt7ExpBaseINS_6TensorIbLm2EEEEE,
                            __ZTSN2wt7ExpBaseINS_6TensorIbLm3EEEEE,
                            __ZTSN2wt7ExpBaseINS_6TensorIfLm1EEEEE,
                            __ZTSN2wt7ExpBaseINS_6TensorIfLm2EEEEE,
                            __ZTSN2wt7ExpBaseINS_6TensorIfLm3EEEEE,
                            __ZTSN2wt7ExpBaseINS_6TensorIhLm1EEEEE,
                            __ZTSN2wt7ExpBaseINS_6TensorIhLm2EEEEE,
                            __ZTSN2wt7ExpBaseINS_6TensorIhLm3EEEEE,
                            __ZTSN2wt7ExpBaseINS_6TensorIiLm1EEEEE,
                            __ZTSN2wt7ExpBaseINS_6TensorIiLm2EEEEE,
                            __ZTSN2wt7ExpBaseINS_6TensorIiLm3EEEEE,
                            __ZTSN2wt7ExpBaseINS_6TensorIjLm2EEEEE,
                            __ZTSN2wt7ExpBaseINS_6TensorIjLm3EEEEE,
                            __ZTSN2wt7ExpBaseINS_6TensorImLm1EEEEE,
                            __ZTSN2wt7ExpBaseINS_6TensorImLm2EEEEE,
                            __ZTSN3wlw22IEspresso_Interface_v2E,
                            __ZTSN3wlw8lcnn_flp16StandardFunctionE,
                            __ZTSN4wopt12LbfgsbSolverIN3wlw8lcnn_flp16StandardFunctionEEE,
                            __ZTSN4wopt14BoundedProblemIdEE,
                            __ZTSN4wopt7ISolverIN3wlw8lcnn_flp16StandardFunctionELi1EEE,
                            __ZTSN4wopt7ProblemIdEE, __ZTSN5rs_ol11ImageCircleE,
                            __ZTSN5rs_ol14RSOnlineFusionE,
                            __ZTSN5rs_ol17RS3DSurfaceOnlineE,
                            __ZTSN5rs_ol17RSFloorPlanOnlineE,
                            __ZTSN5rs_ol17RSZShapeStructureE,
                            __ZTSN5rs_ol18RSOnlineRefinementE,
                            __ZTSN5rs_ol21RSCurvedSurfaceOnlineE,
                            __ZTSN5rs_ol23RSTmOnlineTMScoreHelperE,
                            __ZTSN5rs_ol8RSCircleE,
                            __ZTSN6rs_erf13EdgeProjectorE,
                            __ZTSN6rs_erf14EdgeRefineNodeE,
                            __ZTSN6rs_erf25SingleFrameEdgeRefinementE,
                            __ZTSN6rshape8RSLine2DE, __ZTSN6rshape8RSLine3DE,
                            __ZTSNSt3__110__back_refIcEE,
                            __ZTSNSt3__110__function6__baseIFbRKN8lcnn_spp14UndirectedEdgeEEEE,
                            __ZTSNSt3__110__function6__baseIFbRKNS_13unordered_setIiNS_4hashIiEENS_8equal_toIiEENS_9allocatorIiEEEEEEE,
                            __ZTSNSt3__110__function6__baseIFbRKNS_4spanIKiLm18446744073709551615EEEEEE,
                            __ZTSNSt3__110__function6__baseIFbffEEE,
                            __ZTSNSt3__110__function6__funcINS_4lessIfEENS_9allocatorIS3_EEFbffEEE,
                            __ZTSNSt3__110shared_ptrINS_13__empty_stateIcEEE27__shared_ptr_default_deleteIS2_S2_EE,
                            __ZTSNSt3__110shared_ptrINS_6vectorIcNS_9allocatorIcEEEEE27__shared_ptr_default_deleteIS4_S4_EE,
                            __ZTSNSt3__111__alternateIcEE,
                            __ZTSNSt3__111__end_stateIcEE,
                            __ZTSNSt3__111__lookaheadIcNS_12regex_traitsIcEEEE,
                            __ZTSNSt3__111__match_anyIcEE,
                            __ZTSNSt3__112__match_charIcEE,
                            __ZTSNSt3__113__empty_stateIcEE,
                            __ZTSNSt3__115__has_one_stateIcEE,
                            __ZTSNSt3__115__word_boundaryIcNS_12regex_traitsIcEEEE,
                            __ZTSNSt3__115binary_functionIffbEE,
                            __ZTSNSt3__116__back_ref_icaseIcNS_12regex_traitsIcEEEE,
                            __ZTSNSt3__116__owns_one_stateIcEE,
                            __ZTSNSt3__117__owns_two_statesIcEE,
                            __ZTSNSt3__117__repeat_one_loopIcEE,
                            __ZTSNSt3__117bad_function_callE,
                            __ZTSNSt3__118__back_ref_collateIcNS_12regex_traitsIcEEEE,
                            __ZTSNSt3__118__match_char_icaseIcNS_12regex_traitsIcEEEE,
                            __ZTSNSt3__120__bracket_expressionIcNS_12regex_traitsIcEEEE,
                            __ZTSNSt3__120__l_anchor_multilineIcEE,
                            __ZTSNSt3__120__match_char_collateIcNS_12regex_traitsIcEEEE,
                            __ZTSNSt3__120__r_anchor_multilineIcEE,
                            __ZTSNSt3__120__shared_ptr_emplaceIN2wt7StorageIbEENS_9allocatorIS3_EEEE,
                            __ZTSNSt3__120__shared_ptr_emplaceIN2wt7StorageIfEENS_9allocatorIS3_EEEE,
                            __ZTSNSt3__120__shared_ptr_emplaceIN2wt7StorageIhEENS_9allocatorIS3_EEEE,
                            __ZTSNSt3__120__shared_ptr_emplaceIN2wt7StorageIiEENS_9allocatorIS3_EEEE,
                            __ZTSNSt3__120__shared_ptr_emplaceIN2wt7StorageIjEENS_9allocatorIS3_EEEE,
                            __ZTSNSt3__120__shared_ptr_emplaceIN2wt7StorageImEENS_9allocatorIS3_EEEE,
                            __ZTSNSt3__120__shared_ptr_pointerIPNS_13__empty_stateIcEENS_10shared_ptrIS2_E27__shared_ptr_default_deleteIS2_S2_EENS_9allocatorIS2_EEEE,
                            __ZTSNSt3__120__shared_ptr_pointerIPNS_6vectorIcNS_9allocatorIcEEEENS_10shared_ptrIS4_E27__shared_ptr_default_deleteIS4_S4_EENS2_IS4_EEEE,
                            __ZTSNSt3__121__empty_non_own_stateIcEE,
                            __ZTSNSt3__123__match_any_but_newlineIcEE,
                            __ZTSNSt3__126__end_marked_subexpressionIcEE,
                            __ZTSNSt3__128__begin_marked_subexpressionIcEE,
                            __ZTSNSt3__14lessIfEE, __ZTSNSt3__16__loopIcEE,
                            __ZTSNSt3__16__nodeIcEE ]
...
