---
archs:                 [ arm64, arm64e ]
platform:              (null)
install-name:          /System/Library/Frameworks/MetalPerformanceShaders.framework/Frameworks/MPSCore.framework/MPSCore
current-version:       125.0.31
compatibility-version: 1
exports:
  - archs:                [ arm64, arm64e ]
    symbols:              [ _MPSConvertFloatToHalf, _MPSConvertHalfToFloat,
                            _MPSCopyToFromNetworkByteOrder16,
                            _MPSCopyToFromNetworkByteOrder32,
                            _MPSCreateFunctionConstantValues,
                            _MPSEncodeCopyTexture, _MPSGetCGFunction,
                            _MPSGetDataTypeName,
                            _MPSGetEffectiveFeatureChannelsCount,
                            _MPSGetHeapSizeForCommandBuffer, _MPSGetImageType,
                            _MPSGetLinearTextureSize2D, _MPSGetOSLogHandle,
                            _MPSGetOriginalMTLBuffer,
                            _MPSGetOriginalMTLCommandBuffer,
                            _MPSGetOriginalMTLComputeCommandEncoder,
                            _MPSGetOriginalMTLObject,
                            _MPSGetTemporaryBufferFromCommandBufferCache,
                            _MPSGetTemporaryTextureFromCommandBufferCache,
                            _MPSGetUIntDivisorMagicNumber,
                            _MPSGetUShortDivisorMagicNumber,
                            _MPSGetvImageFunction, _MPSGetvecLibFunction,
                            _MPSImageBatchIncrementReadCount,
                            _MPSImageBatchIterate, _MPSImageBatchResourceSize,
                            _MPSImageBatchSynchronize,
                            _MPSImageFeatureChannelFormatGetName,
                            _MPSIsTextureTwiddled, _MPSNewBufferForTexture,
                            _MPSRectNoClip, _MPSReturnGetName,
                            _MPSReturnTemporaryBufferToCommandBufferCache,
                            _MPSReturnTemporaryTextureToCommandBufferCache,
                            _MPSSeparatePassDimensions, _MPSSetDeviceOptionsSPI,
                            _MPSStateBatchIncrementReadCount,
                            _MPSStateBatchResourceSize,
                            _MPSStateBatchSynchronize,
                            __Z16dataTypeToString11MPSDataType,
                            __Z21MPSDecrementReadCountP17MPSTemporaryImage,
                            __Z21MPSDecrementReadCountP18MPSTemporaryMatrix,
                            __Z21MPSDecrementReadCountP18MPSTemporaryVector,
                            __Z21MPSDecrementReadCountP19MPSTemporaryNDArray,
                            __Z21MPSDecrementReadCountP7NSArrayIP8MPSImageE,
                            __Z21MPSDecrementReadCountP7NSArrayIP8MPSStateE,
                            __Z21MPSDecrementReadCountP8MPSImage,
                            __Z21MPSDecrementReadCountP8MPSState,
                            __Z25MPSGetEffectiveClipRegion7MTLSize9MPSRegion,
                            __Z25MPSGetEffectiveClipRegion7MTLSize9MTLRegion,
                            __ZN10BaseTensor14GetNumElementsEv,
                            __ZN10BaseTensor16GetAccessPatternEP7NSArrayIP10MPSNDArrayES4_,
                            __ZN10BaseTensorC1ERKNSt3__16vectorIlNS0_9allocatorIlEEEE11MPSDataTypePKc,
                            __ZN10BaseTensorC2ERKNSt3__16vectorIlNS0_9allocatorIlEEEE11MPSDataTypePKc,
                            __ZN10BaseTensorD1Ev, __ZN10BaseTensorD2Ev,
                            __ZN10MPSLibrary12RetainMPSKeyEP11MPSKey_data,
                            __ZN10MPSLibrary13MPSKey_CreateEPK17PrivateKernelInfoRK23MPSFunctionConstantListb30MPSThreadGroupSizeMultipleType24MPSDriverCompilerOptionsPFvPS0_EP8NSStringm,
                            __ZN10MPSLibrary13ReleaseMPSKeyEP11MPSKey_data,
                            __ZN10MPSLibrary14MPSKey_CompileEP11MPSKey_data,
                            __ZN10MPSLibrary15GetComputeStateEjRK23MPSFunctionConstantList30MPSThreadGroupSizeMultipleType24MPSDriverCompilerOptionsP8NSStringm,
                            __ZN10MPSLibrary17GetCacheKeyAtomicEPK17PrivateKernelInfoRK23MPSFunctionConstantListbPNSt3__16atomicIP11MPSKey_dataEE30MPSThreadGroupSizeMultipleType24MPSDriverCompilerOptionsP8NSStringm,
                            __ZN10MPSLibrary19CreateUberShaderKeyEP8NSStringRK23MPSFunctionConstantListyPFPU22objcproto11MTLFunction11objc_objectPU21objcproto10MTLLibrary11objc_objectPK13MPSKernelInfoS4_PP7NSErrorEy30MPSThreadGroupSizeMultipleType24MPSDriverCompilerOptionsP18MPSKernelDAGObjectS1_m,
                            __ZN10MPSLibrary19ReleaseComputeStateEPU34objcproto23MTLComputePipelineState11objc_object,
                            __ZN10MPSLibrary19getKernelDAGLibraryEv,
                            __ZN10MPSLibrary20GetComputeStateAsyncEjRK23MPSFunctionConstantList30MPSThreadGroupSizeMultipleTypeP8NSStringm,
                            __ZN10MPSLibrary20PrefetchComputeStateEjRK23MPSFunctionConstantList30MPSThreadGroupSizeMultipleTypeP8NSStringm,
                            __ZN10MPSLibrary21MPSKey_GetComputeInfoEP11MPSKey_dataNS_13SynchronicityE,
                            __ZN10MPSLibrary23NewComputePipelineStateEP8NSStringP25MTLFunctionConstantValues30MPSThreadGroupSizeMultipleType,
                            __ZN10MPSLibrary25GetPipelineStateForMPSKeyEP11MPSKey_dataPU27objcproto16MTLCommandBuffer11objc_object,
                            __ZN10MPSLibrary25LoadMPSDeviceSpecificInfoERK21MPSDeviceSpecificInfo,
                            __ZN10MPSLibraryC1EPU21objcproto10MTLLibrary11objc_objectPK14MPSLibraryInfoP9MPSDevice,
                            __ZN10MPSLibraryC2EPU21objcproto10MTLLibrary11objc_objectPK14MPSLibraryInfoP9MPSDevice,
                            __ZN10MPSLibraryD1Ev, __ZN10MPSLibraryD2Ev,
                            __ZN12MPSAutoCache13GetTempBufferEmP15MTLSizeAndAlign,
                            __ZN12MPSAutoCache14GetTempTextureEPK12MPSPixelInfoPK7MTLSizeP20MTLTextureDescriptorbP19TextureSizeAndAlign,
                            __ZN12MPSAutoCache15WarmAllocationsEPU27objcproto16MTLCommandBuffer11objc_objectmm,
                            __ZN12MPSAutoCache15WarmAllocationsEPU27objcproto16MTLCommandBuffer11objc_objectmmm,
                            __ZN12MPSAutoCache16PrefetchHeapSizeEPU27objcproto16MTLCommandBuffer11objc_objectm,
                            __ZN12MPSAutoCache19ReleaseTempResourceEPU22objcproto11MTLResource11objc_object,
                            __ZN12MPSAutoCache20SetHeapCacheDurationEPU27objcproto16MTLCommandBuffer11objc_objectd,
                            __ZN12MPSAutoCache24GetCompressedTempTextureEPK12MPSPixelInfoPK7MTLSizeP20MTLTextureDescriptorbP19TextureSizeAndAlign,
                            __ZN12MPSAutoCache30UserCacheFrameForCommandBufferEPU27objcproto16MTLCommandBuffer11objc_object,
                            __ZN12MPSAutoCacheC1EPU27objcproto16MTLCommandBuffer11objc_objectPU21objcproto10MTLTexture11objc_object,
                            __ZN12MPSAutoCacheC2EPU27objcproto16MTLCommandBuffer11objc_objectPU21objcproto10MTLTexture11objc_object,
                            __ZN12MPSAutoCacheD1Ev, __ZN12MPSAutoCacheD2Ev,
                            __ZN12MPSKernelDAG10absoluteOpEP10BaseTensorRKNSt3__16vectorIlNS2_9allocatorIlEEEE11MPSDataTypePKc,
                            __ZN12MPSKernelDAG10additionOpEP10BaseTensorS1_RKNSt3__16vectorIlNS2_9allocatorIlEEEE11MPSDataTypePKc,
                            __ZN12MPSKernelDAG10bandPartOpEP10BaseTensoriiRKNSt3__16vectorIlNS2_9allocatorIlEEEE11MPSDataTypePKc,
                            __ZN12MPSKernelDAG10constantOpEdRKNSt3__16vectorIlNS0_9allocatorIlEEEE11MPSDataTypePKc,
                            __ZN12MPSKernelDAG10constantOpExRKNSt3__16vectorIlNS0_9allocatorIlEEEE11MPSDataTypePKc,
                            __ZN12MPSKernelDAG10divisionOpEP10BaseTensorS1_RKNSt3__16vectorIlNS2_9allocatorIlEEEE11MPSDataTypePKc,
                            __ZN12MPSKernelDAG10exponentOpEP10BaseTensorRKNSt3__16vectorIlNS2_9allocatorIlEEEE11MPSDataTypePKc,
                            __ZN12MPSKernelDAG10isFiniteOpEP10BaseTensorRKNSt3__16vectorIlNS2_9allocatorIlEEEE11MPSDataTypePKc,
                            __ZN12MPSKernelDAG10lessThanOpEP10BaseTensorS1_RKNSt3__16vectorIlNS2_9allocatorIlEEEE11MPSDataTypePKc,
                            __ZN12MPSKernelDAG10negativeOpEP10BaseTensorRKNSt3__16vectorIlNS2_9allocatorIlEEEE11MPSDataTypePKc,
                            __ZN12MPSKernelDAG11broadcastOpEP10BaseTensorRKNSt3__16vectorIlNS2_9allocatorIlEEEE11MPSDataTypePKc,
                            __ZN12MPSKernelDAG11flipCoordOpEP10BaseTensoriRKNSt3__16vectorIlNS2_9allocatorIlEEEE11MPSDataTypePKc,
                            __ZN12MPSKernelDAG11logarithmOpEP10BaseTensorRKNSt3__16vectorIlNS2_9allocatorIlEEEE11MPSDataTypePKc,
                            __ZN12MPSKernelDAG11shiftDataOpEP10BaseTensoriiRKNSt3__16vectorIlNS2_9allocatorIlEEEE11MPSDataTypePKc,
                            __ZN12MPSKernelDAG11texture2DOpERKNSt3__16vectorIlNS0_9allocatorIlEEEE11MPSDataTypePKc,
                            __ZN12MPSKernelDAG11unaryCoreOpEP10BaseTensorRKNSt3__16vectorIlNS2_9allocatorIlEEEE11MPSDataTypePKc,
                            __ZN12MPSKernelDAG12addOpToGraphEP14MPSDAGKernelOp,
                            __ZN12MPSKernelDAG12binaryCoreOpEP10BaseTensorS1_RKNSt3__16vectorIlNS2_9allocatorIlEEEE11MPSDataTypePKc,
                            __ZN12MPSKernelDAG12flipCoord4OpEP10BaseTensorDv4_iRKNSt3__16vectorIlNS3_9allocatorIlEEEE11MPSDataTypePKc,
                            __ZN12MPSKernelDAG12isInfiniteOpEP10BaseTensorRKNSt3__16vectorIlNS2_9allocatorIlEEEE11MPSDataTypePKc,
                            __ZN12MPSKernelDAG12isNotEqualOpEP10BaseTensorS1_RKNSt3__16vectorIlNS2_9allocatorIlEEEE11MPSDataTypePKc,
                            __ZN12MPSKernelDAG12reciprocalOpEP10BaseTensorRKNSt3__16vectorIlNS2_9allocatorIlEEEE11MPSDataTypePKc,
                            __ZN12MPSKernelDAG12shiftData4OpEP10BaseTensorDv4_iRKNSt3__16vectorIlNS3_9allocatorIlEEEE11MPSDataTypePKc,
                            __ZN12MPSKernelDAG12squareRootOpEP10BaseTensorRKNSt3__16vectorIlNS2_9allocatorIlEEEE11MPSDataTypePKc,
                            __ZN12MPSKernelDAG12strideGradOpEP10BaseTensorDv4_iRKNSt3__16vectorIlNS3_9allocatorIlEEEE11MPSDataTypePKc,
                            __ZN12MPSKernelDAG13getDAGAndHashEPU21objcproto10MTLLibrary11objc_objectP14MPSDAGKernelOpP19NSMutableDictionaryIP8NSStringPU22objcproto11MTLFunction11objc_objectEP14NSMutableArrayIS6_ERDv4_yPb,
                            __ZN12MPSKernelDAG13greaterThanOpEP10BaseTensorS1_RKNSt3__16vectorIlNS2_9allocatorIlEEEE11MPSDataTypePKc,
                            __ZN12MPSKernelDAG13intAdditionOpEP10BaseTensorS1_RKNSt3__16vectorIlNS2_9allocatorIlEEEE11MPSDataTypePKc,
                            __ZN12MPSKernelDAG13nullaryCoreOpERKNSt3__16vectorIlNS0_9allocatorIlEEEE11MPSDataTypePKc,
                            __ZN12MPSKernelDAG13placeholderOpERKNSt3__16vectorIlNS0_9allocatorIlEEEE11MPSDataTypePKc,
                            __ZN12MPSKernelDAG13subtractionOpEP10BaseTensorS1_RKNSt3__16vectorIlNS2_9allocatorIlEEEE11MPSDataTypePKc,
                            __ZN12MPSKernelDAG13ternaryCoreOpEP10BaseTensorS1_S1_RKNSt3__16vectorIlNS2_9allocatorIlEEEE11MPSDataTypePKc,
                            __ZN12MPSKernelDAG14quartaryCoreOpEP10BaseTensorS1_S1_S1_RKNSt3__16vectorIlNS2_9allocatorIlEEEE11MPSDataTypePKc,
                            __ZN12MPSKernelDAG15exponentBase2OpEP10BaseTensorRKNSt3__16vectorIlNS2_9allocatorIlEEEE11MPSDataTypePKc,
                            __ZN12MPSKernelDAG15getCoordValueOpEmRKNSt3__16vectorIlNS0_9allocatorIlEEEE11MPSDataTypePKc,
                            __ZN12MPSKernelDAG16exponentBase10OpEP10BaseTensorRKNSt3__16vectorIlNS2_9allocatorIlEEEE11MPSDataTypePKc,
                            __ZN12MPSKernelDAG16logarithmBase2OpEP10BaseTensorRKNSt3__16vectorIlNS2_9allocatorIlEEEE11MPSDataTypePKc,
                            __ZN12MPSKernelDAG16multiplicationOpEP10BaseTensorS1_RKNSt3__16vectorIlNS2_9allocatorIlEEEE11MPSDataTypePKc,
                            __ZN12MPSKernelDAG16spaceToDepth2dOpEP10BaseTensoriiiibbRKNSt3__16vectorIlNS2_9allocatorIlEEEE11MPSDataTypePKc,
                            __ZN12MPSKernelDAG17lessThanEqualToOpEP10BaseTensorS1_RKNSt3__16vectorIlNS2_9allocatorIlEEEE11MPSDataTypePKc,
                            __ZN12MPSKernelDAG17logarithmBase10OpEP10BaseTensorRKNSt3__16vectorIlNS2_9allocatorIlEEEE11MPSDataTypePKc,
                            __ZN12MPSKernelDAG18getCoordOfTensorOpEP10BaseTensormRKNSt3__16vectorIlNS2_9allocatorIlEEEE11MPSDataTypePKc,
                            __ZN12MPSKernelDAG19reverseSquareRootOpEP10BaseTensorRKNSt3__16vectorIlNS2_9allocatorIlEEEE11MPSDataTypePKc,
                            __ZN12MPSKernelDAG20greaterThanEqualToOpEP10BaseTensorS1_RKNSt3__16vectorIlNS2_9allocatorIlEEEE11MPSDataTypePKc,
                            __ZN12MPSKernelDAG21pixelMatrixMultiplyOpEP10BaseTensorRKNSt3__16vectorIlNS2_9allocatorIlEEEE11MPSDataTypePKfPKc,
                            __ZN12MPSKernelDAG25appendConversionFunctionsEPU21objcproto10MTLLibrary11objc_objectP14NSMutableArrayIPU22objcproto11MTLFunction11objc_objectEPb,
                            __ZN12MPSKernelDAG4orOpEP10BaseTensorS1_RKNSt3__16vectorIlNS2_9allocatorIlEEEE11MPSDataTypePKc,
                            __ZN12MPSKernelDAG5andOpEP10BaseTensorS1_RKNSt3__16vectorIlNS2_9allocatorIlEEEE11MPSDataTypePKc,
                            __ZN12MPSKernelDAG5cosOpEP10BaseTensorRKNSt3__16vectorIlNS2_9allocatorIlEEEE11MPSDataTypePKc,
                            __ZN12MPSKernelDAG5erfOpEP10BaseTensorRKNSt3__16vectorIlNS2_9allocatorIlEEEE11MPSDataTypePKc,
                            __ZN12MPSKernelDAG5norOpEP10BaseTensorS1_RKNSt3__16vectorIlNS2_9allocatorIlEEEE11MPSDataTypePKc,
                            __ZN12MPSKernelDAG5notOpEP10BaseTensorRKNSt3__16vectorIlNS2_9allocatorIlEEEE11MPSDataTypePKc,
                            __ZN12MPSKernelDAG5padOpEP10BaseTensorDv4_i16MPSImageEdgeModeRKNSt3__16vectorIlNS4_9allocatorIlEEEE11MPSDataTypePKc,
                            __ZN12MPSKernelDAG5sinOpEP10BaseTensorRKNSt3__16vectorIlNS2_9allocatorIlEEEE11MPSDataTypePKc,
                            __ZN12MPSKernelDAG5tanOpEP10BaseTensorRKNSt3__16vectorIlNS2_9allocatorIlEEEE11MPSDataTypePKc,
                            __ZN12MPSKernelDAG5xorOpEP10BaseTensorS1_RKNSt3__16vectorIlNS2_9allocatorIlEEEE11MPSDataTypePKc,
                            __ZN12MPSKernelDAG6acosOpEP10BaseTensorRKNSt3__16vectorIlNS2_9allocatorIlEEEE11MPSDataTypePKc,
                            __ZN12MPSKernelDAG6asinOpEP10BaseTensorRKNSt3__16vectorIlNS2_9allocatorIlEEEE11MPSDataTypePKc,
                            __ZN12MPSKernelDAG6atanOpEP10BaseTensorRKNSt3__16vectorIlNS2_9allocatorIlEEEE11MPSDataTypePKc,
                            __ZN12MPSKernelDAG6castOpEP10BaseTensorRKNSt3__16vectorIlNS2_9allocatorIlEEEE11MPSDataTypePKc,
                            __ZN12MPSKernelDAG6ceilOpEP10BaseTensorRKNSt3__16vectorIlNS2_9allocatorIlEEEE11MPSDataTypePKc,
                            __ZN12MPSKernelDAG6coshOpEP10BaseTensorRKNSt3__16vectorIlNS2_9allocatorIlEEEE11MPSDataTypePKc,
                            __ZN12MPSKernelDAG6nandOpEP10BaseTensorS1_RKNSt3__16vectorIlNS2_9allocatorIlEEEE11MPSDataTypePKc,
                            __ZN12MPSKernelDAG6rintOpEP10BaseTensorRKNSt3__16vectorIlNS2_9allocatorIlEEEE11MPSDataTypePKc,
                            __ZN12MPSKernelDAG6signOpEP10BaseTensorRKNSt3__16vectorIlNS2_9allocatorIlEEEE11MPSDataTypePKc,
                            __ZN12MPSKernelDAG6sinhOpEP10BaseTensorRKNSt3__16vectorIlNS2_9allocatorIlEEEE11MPSDataTypePKc,
                            __ZN12MPSKernelDAG6tanhOpEP10BaseTensorRKNSt3__16vectorIlNS2_9allocatorIlEEEE11MPSDataTypePKc,
                            __ZN12MPSKernelDAG6xnorOpEP10BaseTensorS1_RKNSt3__16vectorIlNS2_9allocatorIlEEEE11MPSDataTypePKc,
                            __ZN12MPSKernelDAG7acoshOpEP10BaseTensorRKNSt3__16vectorIlNS2_9allocatorIlEEEE11MPSDataTypePKc,
                            __ZN12MPSKernelDAG7asinhOpEP10BaseTensorRKNSt3__16vectorIlNS2_9allocatorIlEEEE11MPSDataTypePKc,
                            __ZN12MPSKernelDAG7atan2OpEP10BaseTensorS1_RKNSt3__16vectorIlNS2_9allocatorIlEEEE11MPSDataTypePKc,
                            __ZN12MPSKernelDAG7atanhOpEP10BaseTensorRKNSt3__16vectorIlNS2_9allocatorIlEEEE11MPSDataTypePKc,
                            __ZN12MPSKernelDAG7clampOpEP10BaseTensorS1_S1_RKNSt3__16vectorIlNS2_9allocatorIlEEEE11MPSDataTypePKc,
                            __ZN12MPSKernelDAG7floorOpEP10BaseTensorRKNSt3__16vectorIlNS2_9allocatorIlEEEE11MPSDataTypePKc,
                            __ZN12MPSKernelDAG7isNaNOpEP10BaseTensorRKNSt3__16vectorIlNS2_9allocatorIlEEEE11MPSDataTypePKc,
                            __ZN12MPSKernelDAG7powerOpEP10BaseTensorS1_RKNSt3__16vectorIlNS2_9allocatorIlEEEE11MPSDataTypePKc,
                            __ZN12MPSKernelDAG7roundOpEP10BaseTensorRKNSt3__16vectorIlNS2_9allocatorIlEEEE11MPSDataTypePKc,
                            __ZN12MPSKernelDAG7sliceOpEP10BaseTensorDv4_iRKNSt3__16vectorIlNS3_9allocatorIlEEEE11MPSDataTypePKc,
                            __ZN12MPSKernelDAG8moduloOpEP10BaseTensorS1_RKNSt3__16vectorIlNS2_9allocatorIlEEEE11MPSDataTypePKc,
                            __ZN12MPSKernelDAG8selectOpEP10BaseTensorS1_S1_RKNSt3__16vectorIlNS2_9allocatorIlEEEE11MPSDataTypePKc,
                            __ZN12MPSKernelDAG8squareOpEP10BaseTensorRKNSt3__16vectorIlNS2_9allocatorIlEEEE11MPSDataTypePKc,
                            __ZN12MPSKernelDAG8strideOpEP10BaseTensorDv4_ibRKNSt3__16vectorIlNS3_9allocatorIlEEEE11MPSDataTypePKc,
                            __ZN12MPSKernelDAG9isEqualOpEP10BaseTensorS1_RKNSt3__16vectorIlNS2_9allocatorIlEEEE11MPSDataTypePKc,
                            __ZN12MPSKernelDAG9maximumOpEP10BaseTensorS1_RKNSt3__16vectorIlNS2_9allocatorIlEEEE11MPSDataTypePKc,
                            __ZN12MPSKernelDAG9minimumOpEP10BaseTensorS1_RKNSt3__16vectorIlNS2_9allocatorIlEEEE11MPSDataTypePKc,
                            __ZN12MPSKernelDAG9signbitOpEP10BaseTensorRKNSt3__16vectorIlNS2_9allocatorIlEEEE11MPSDataTypePKc,
                            __ZN12MPSKernelDAGC1ERKNSt3__16vectorIP10BaseTensorNS0_9allocatorIS3_EEEEPKc,
                            __ZN12MPSKernelDAGC2ERKNSt3__16vectorIP10BaseTensorNS0_9allocatorIS3_EEEEPKc,
                            __ZN12MPSKernelDAGD0Ev, __ZN12MPSKernelDAGD1Ev,
                            __ZN12MPSKernelDAGD2Ev,
                            __ZN13BaseOperationC1ERKNSt3__16vectorIP10BaseTensorNS0_9allocatorIS3_EEEEP9BaseGraphPKc,
                            __ZN13BaseOperationC2ERKNSt3__16vectorIP10BaseTensorNS0_9allocatorIS3_EEEEP9BaseGraphPKc,
                            __ZN13BaseOperationD0Ev, __ZN13BaseOperationD1Ev,
                            __ZN13BaseOperationD2Ev,
                            __ZN13MPSAutoBuffer14AllocateBufferEP8NSString,
                            __ZN13MPSAutoBuffer14InitWithBufferEPU19objcproto9MTLBuffer11objc_object,
                            __ZN13MPSAutoBuffer22ReleaseTemporaryBufferEv,
                            __ZN13MPSAutoBuffer23GetResourceSize_PrivateEv,
                            __ZN13MPSAutoBuffer23InitDeferredUsingDeviceEmPU19objcproto9MTLDevice11objc_object,
                            __ZN13MPSAutoBuffer29InitDeferredUsingTextureCacheEmPU27objcproto16MTLCommandBuffer11objc_object,
                            __ZN13MPSAutoBufferD1Ev, __ZN13MPSAutoBufferD2Ev,
                            __ZN14MPSAutoTexture15AllocateTextureEP8NSString,
                            __ZN14MPSAutoTexture15InitWithTextureEPU21objcproto10MTLTexture11objc_object28MPSImageFeatureChannelFormat,
                            __ZN14MPSAutoTexture18InitWithSubTextureERS_8_NSRange,
                            __ZN14MPSAutoTexture23GetResourceSize_PrivateEPm,
                            __ZN14MPSAutoTexture23InitDeferredUsingDeviceEP20MTLTextureDescriptorP9MPSDevice28MPSImageFeatureChannelFormatb,
                            __ZN14MPSAutoTexture23ReleaseTemporaryTextureEv,
                            __ZN14MPSAutoTexture29InitDeferredUsingTextureCacheEP20MTLTextureDescriptorPU27objcproto16MTLCommandBuffer11objc_object28MPSImageFeatureChannelFormatb,
                            __ZN14MPSAutoTextureD1Ev, __ZN14MPSAutoTextureD2Ev,
                            __ZN14MPSDAGKernelOp17DAGStringFunctionERNSt3__16vectorIP10BaseTensorNS0_9allocatorIS3_EEEEPKcbmPmm,
                            __ZN14MPSDAGKernelOp17functionConstantsEv,
                            __ZN14MPSDAGKernelOp18getSpecializedNameEPKc,
                            __ZN14MPSDAGKernelOp7DAGNodeEbPKcm,
                            __ZN14MPSDAGKernelOp9DAGNodeIdEm,
                            __ZN14MPSDAGKernelOpC1ERKNSt3__16vectorIP10BaseTensorNS0_9allocatorIS3_EEEEP9BaseGraphPKc,
                            __ZN14MPSDAGKernelOpC2ERKNSt3__16vectorIP10BaseTensorNS0_9allocatorIS3_EEEEP9BaseGraphPKc,
                            __ZN14MPSDAGKernelOpD0Ev, __ZN14MPSDAGKernelOpD1Ev,
                            __ZN14MPSDAGKernelOpD2Ev,
                            __ZN15MPSDevice_MacOS10AddKernelsEPK14MPSLibraryInfoP10MPSLibrary,
                            __ZN15MPSDevice_MacOS14SupportsPluginEP10objc_class,
                            __ZN15MPSDevice_MacOSC1EPU19objcproto9MTLDevice11objc_object,
                            __ZN15MPSDevice_MacOSC2EPU19objcproto9MTLDevice11objc_object,
                            __ZN16MPSDevice_Common10AddKernelsEPK14MPSLibraryInfoP10MPSLibrary,
                            __ZN16MPSDevice_CommonC1EPU19objcproto9MTLDevice11objc_object,
                            __ZN16MPSDevice_CommonC2EPU19objcproto9MTLDevice11objc_object,
                            __ZN9BaseGraphC1ERKNSt3__16vectorIP10BaseTensorNS0_9allocatorIS3_EEEEPKc,
                            __ZN9BaseGraphC2ERKNSt3__16vectorIP10BaseTensorNS0_9allocatorIS3_EEEEPKc,
                            __ZN9BaseGraphD0Ev, __ZN9BaseGraphD1Ev,
                            __ZN9BaseGraphD2Ev,
                            __ZN9MPSDevice10GetLibraryEPK14MPSLibraryInfo,
                            __ZN9MPSDevice10GetSamplerE16MPSImageEdgeMode21MPSFilterSamplingMode23MPSFilterCoordinateMode,
                            __ZN9MPSDevice11DeleteQueueEPU26objcproto15MTLCommandQueue11objc_object,
                            __ZN9MPSDevice12GetHeapBlockEm,
                            __ZN9MPSDevice12GetMPSDeviceEPU19objcproto9MTLDevice11objc_object,
                            __ZN9MPSDevice12GetPixelInfoE14MTLPixelFormat28MPSImageFeatureChannelFormat,
                            __ZN9MPSDevice15ReturnHeapBlockEP11objc_objecty,
                            __ZN9MPSDevice19ExerciseLibraryListEv,
                            __ZN9MPSDevice19getKernelDAGLibraryEv,
                            __ZN9MPSDevice22GetMPSLibrary_DoNotUseEPK14MPSLibraryInfo,
                            __ZN9MPSDevice8GetQueueEv,
                            __ZN9MPSDeviceC2EPU19objcproto9MTLDevice11objc_object,
                            __ZN9MPSDeviceD0Ev, __ZN9MPSDeviceD1Ev,
                            __ZN9MPSDeviceD2Ev,
                            __ZNK10BaseTensor16GetDimensionSizeEj,
                            __ZNK12MPSKernelDAG21GetCoreOpInputAtIndexEj,
                            __ZNK12MPSKernelDAG22GetCoreOpOutputAtIndexEj,
                            __ZNK12MPSKernelDAG23GetCoreOpNumberOfInputsEv,
                            __ZNK12MPSKernelDAG24GetCoreOpNumberOfOutputsEv,
                            __ZNK13MPSAutoBuffer5PrintEv,
                            __ZNK14MPSAutoTexture16GetCommandBufferEv,
                            __ZNK14MPSAutoTexture5PrintEv,
                            __ZNK14MPSAutoTexture9GetDeviceEv,
                            __ZNK14MPSDAGKernelOp22getVisibleFunctionNameEPKc,
                            __ZNK9MPSDevice22GetDefaultCPUCacheModeEv,
                            __ZNK9MPSDevice22GetResourceStorageModeEv,
                            __ZNK9MPSDevice31GetTemporaryResourceStorageModeEv,
                            __ZNK9MPSDevice33GetHeapResourceHazardTrackingModeEv,
                            __ZTV12MPSKernelDAG, __ZTV13BaseOperation,
                            __ZTV14MPSDAGKernelOp, __ZTV15MPSDevice_MacOS,
                            __ZTV16MPSDevice_Common, __ZTV9BaseGraph,
                            __ZTV9MPSDevice, _kMPSEmptyLibraryInfo ]
    objc-classes:         [ _MPSCommandBuffer, _MPSComputeEncoder,
                            _MPSExternalPluginBase, _MPSImage, _MPSImageDescriptor,
                            _MPSKernel, _MPSKernelDAGObject, _MPSKeyedUnarchiver,
                            _MPSMatrix, _MPSMatrixDescriptor, _MPSNDArray,
                            _MPSNDArrayDescriptor, _MPSParallelExclusiveScan,
                            _MPSParallelInclusiveScan, _MPSParallelRadixSort,
                            _MPSParallelRandom,
                            _MPSParallelRandomDistributionDescriptor,
                            _MPSParallelRandomMTGP32,
                            _MPSParallelRandomMTGP32State,
                            _MPSParallelRandomPhilox, _MPSParallelReduce,
                            _MPSParallelReduceArgMax, _MPSParallelReduceArgMin,
                            _MPSParallelReduceMax, _MPSParallelReduceMin,
                            _MPSParallelReduceSum, _MPSParallelScan,
                            _MPSParallelSort, _MPSPredicate,
                            _MPSPredicatedCommandEncoder, _MPSState,
                            _MPSStateResourceList, _MPSTemporaryImage,
                            _MPSTemporaryMatrix, _MPSTemporaryNDArray,
                            _MPSTemporaryVector, _MPSVector, _MPSVectorDescriptor,
                            _MPSVirtualImage, _MPSWorkloadStatistics ]
    objc-ivars:           [ _MPSExternalPluginBase._self, _MPSImage._device,
                            _MPSImage._featureChannelFormat,
                            _MPSImage._featureChannels,
                            _MPSImage._featureChannelsLayout, _MPSImage._height,
                            _MPSImage._label, _MPSImage._numberOfImages,
                            _MPSImage._parent, _MPSImage._pixelInfo,
                            _MPSImage._texture, _MPSImage._textureType,
                            _MPSImage._updatedAlready, _MPSImage._width,
                            _MPSImageDescriptor._cacheMode,
                            _MPSImageDescriptor._channelFormat,
                            _MPSImageDescriptor._featureChannelFormat,
                            _MPSImageDescriptor._featureChannels,
                            _MPSImageDescriptor._featureChannelsLayout,
                            _MPSImageDescriptor._height,
                            _MPSImageDescriptor._numberOfImages,
                            _MPSImageDescriptor._storageMode,
                            _MPSImageDescriptor._usage,
                            _MPSImageDescriptor._width,
                            _MPSKernel._allowedOptions, _MPSKernel._device,
                            _MPSKernel._enableConcurrency,
                            _MPSKernel._fileVersion, _MPSKernel._label,
                            _MPSKernel._labelHash, _MPSKernel._library,
                            _MPSKernel._maxTuningParams, _MPSKernel._options,
                            _MPSKernel._privateOptions, _MPSKernel._tuningParams,
                            _MPSKernel._verbosityLevel, _MPSMatrix._buffer,
                            _MPSMatrix._columns, _MPSMatrix._dataType,
                            _MPSMatrix._device, _MPSMatrix._matrices,
                            _MPSMatrix._matrixBytes, _MPSMatrix._offset,
                            _MPSMatrix._rowBytes, _MPSMatrix._rows,
                            _MPSMatrixDescriptor._columns,
                            _MPSMatrixDescriptor._dataType,
                            _MPSMatrixDescriptor._matrices,
                            _MPSMatrixDescriptor._matrixBytes,
                            _MPSMatrixDescriptor._rowBytes,
                            _MPSMatrixDescriptor._rows, _MPSNDArray._buffer,
                            _MPSNDArray._dataType, _MPSNDArray._device,
                            _MPSNDArray._dimensionLengths,
                            _MPSNDArray._dimensionOrder, _MPSNDArray._iosurface,
                            _MPSNDArray._isTemporary, _MPSNDArray._label,
                            _MPSNDArray._library,
                            _MPSNDArray._numberOfDimensions, _MPSNDArray._offset,
                            _MPSNDArray._parent, _MPSNDArray._rowBytes,
                            _MPSNDArray._sliceLengths, _MPSNDArray._sliceOffsets,
                            _MPSNDArrayDescriptor._child,
                            _MPSNDArrayDescriptor._dataType,
                            _MPSNDArrayDescriptor._dimensionLengths,
                            _MPSNDArrayDescriptor._dimensionOrder,
                            _MPSNDArrayDescriptor._numberOfDimensions,
                            _MPSNDArrayDescriptor._parent,
                            _MPSNDArrayDescriptor._preferPackedRows,
                            _MPSNDArrayDescriptor._rowBytes,
                            _MPSNDArrayDescriptor._sliceLengths,
                            _MPSNDArrayDescriptor._sliceOffsets,
                            _MPSNDArrayDescriptor._transitionOp,
                            _MPSParallelRandomMTGP32._bernoulliParameter,
                            _MPSParallelRandomMTGP32._normalMean,
                            _MPSParallelRandomMTGP32._normalStandardDeviation,
                            _MPSParallelRandomMTGP32._pM,
                            _MPSParallelRandomMTGP32._pMR,
                            _MPSParallelRandomMTGP32._pMT,
                            _MPSParallelRandomMTGP32._pShift1,
                            _MPSParallelRandomMTGP32._pShift2,
                            _MPSParallelRandomMTGP32._pStateIdx,
                            _MPSParallelRandomMTGP32._state,
                            _MPSParallelRandomMTGP32._uniformMax,
                            _MPSParallelRandomMTGP32._uniformMin,
                            _MPSParallelRandomPhilox._bernoulliParameter,
                            _MPSParallelRandomPhilox._counters,
                            _MPSParallelRandomPhilox._normalMean,
                            _MPSParallelRandomPhilox._normalStandardDeviation,
                            _MPSParallelRandomPhilox._seed,
                            _MPSParallelRandomPhilox._uniformMax,
                            _MPSParallelRandomPhilox._uniformMin,
                            _MPSState._flags, _MPSState._label,
                            _MPSState._readCount, _MPSState._resourceCount,
                            _MPSState._resources, _MPSState._updatedAlready,
                            _MPSTemporaryImage._readCount,
                            _MPSTemporaryMatrix._readCount,
                            _MPSTemporaryNDArray._commandBuffer,
                            _MPSTemporaryNDArray._readCount,
                            _MPSTemporaryVector._readCount, _MPSVector._buffer,
                            _MPSVector._dataType, _MPSVector._device,
                            _MPSVector._length, _MPSVector._offset,
                            _MPSVector._vectorBytes, _MPSVector._vectors,
                            _MPSVectorDescriptor._dataType,
                            _MPSVectorDescriptor._length,
                            _MPSVectorDescriptor._vectorBytes,
                            _MPSVectorDescriptor._vectors ]
...
